
Hoodloader2.elf:     file format elf32-avr

Sections:
Idx Name          Size      VMA       LMA       File off  Algn
  0 .data         00000094  00800100  00003ef6  00000fca  2**0
                  CONTENTS, ALLOC, LOAD, DATA
  1 .text         00000ef6  00003000  00003000  000000d4  2**1
                  CONTENTS, ALLOC, LOAD, READONLY, CODE
  2 .apitable_trampolines 00000018  00003fa0  00003fa0  0000105e  2**0
                  CONTENTS, ALLOC, LOAD, READONLY, CODE
  3 .apitable_jumptable 00000018  00003fe0  00003fe0  00001076  2**0
                  CONTENTS, ALLOC, LOAD, READONLY, CODE
  4 .apitable_signatures 00000008  00003ff8  00003ff8  0000108e  2**0
                  CONTENTS, ALLOC, LOAD, READONLY, CODE
  5 .bss          00000052  00800194  00800194  00001096  2**0
                  ALLOC
  6 .noinit       00000001  008001e6  008001e6  00001096  2**0
                  ALLOC
  7 .stab         00000954  00000000  00000000  00001098  2**2
                  CONTENTS, READONLY, DEBUGGING
  8 .stabstr      000000e2  00000000  00000000  000019ec  2**0
                  CONTENTS, READONLY, DEBUGGING
  9 .comment      00000011  00000000  00000000  00001ace  2**0
                  CONTENTS, READONLY
 10 .debug_aranges 000003a8  00000000  00000000  00001ae0  2**3
                  CONTENTS, READONLY, DEBUGGING
 11 .debug_info   00005925  00000000  00000000  00001e88  2**0
                  CONTENTS, READONLY, DEBUGGING
 12 .debug_abbrev 00001691  00000000  00000000  000077ad  2**0
                  CONTENTS, READONLY, DEBUGGING
 13 .debug_line   000028fe  00000000  00000000  00008e3e  2**0
                  CONTENTS, READONLY, DEBUGGING
 14 .debug_frame  00000984  00000000  00000000  0000b73c  2**2
                  CONTENTS, READONLY, DEBUGGING
 15 .debug_str    00002a13  00000000  00000000  0000c0c0  2**0
                  CONTENTS, READONLY, DEBUGGING
 16 .debug_loc    00003df6  00000000  00000000  0000ead3  2**0
                  CONTENTS, READONLY, DEBUGGING
 17 .debug_ranges 000005e0  00000000  00000000  000128d0  2**3
                  CONTENTS, READONLY, DEBUGGING

Disassembly of section .text:

00003000 <__vectors>:
    3000:	39 c0       	rjmp	.+114    	; 0x3074 <__ctors_end>
    3002:	00 00       	nop
    3004:	68 c0       	rjmp	.+208    	; 0x30d6 <__bad_interrupt>
    3006:	00 00       	nop
    3008:	66 c0       	rjmp	.+204    	; 0x30d6 <__bad_interrupt>
    300a:	00 00       	nop
    300c:	64 c0       	rjmp	.+200    	; 0x30d6 <__bad_interrupt>
    300e:	00 00       	nop
    3010:	62 c0       	rjmp	.+196    	; 0x30d6 <__bad_interrupt>
    3012:	00 00       	nop
    3014:	60 c0       	rjmp	.+192    	; 0x30d6 <__bad_interrupt>
    3016:	00 00       	nop
    3018:	5e c0       	rjmp	.+188    	; 0x30d6 <__bad_interrupt>
    301a:	00 00       	nop
    301c:	5c c0       	rjmp	.+184    	; 0x30d6 <__bad_interrupt>
    301e:	00 00       	nop
    3020:	5a c0       	rjmp	.+180    	; 0x30d6 <__bad_interrupt>
    3022:	00 00       	nop
    3024:	58 c0       	rjmp	.+176    	; 0x30d6 <__bad_interrupt>
    3026:	00 00       	nop
    3028:	56 c0       	rjmp	.+172    	; 0x30d6 <__bad_interrupt>
    302a:	00 00       	nop
    302c:	6a c5       	rjmp	.+2772   	; 0x3b02 <__vector_11>
    302e:	00 00       	nop
    3030:	52 c0       	rjmp	.+164    	; 0x30d6 <__bad_interrupt>
    3032:	00 00       	nop
    3034:	50 c0       	rjmp	.+160    	; 0x30d6 <__bad_interrupt>
    3036:	00 00       	nop
    3038:	4e c0       	rjmp	.+156    	; 0x30d6 <__bad_interrupt>
    303a:	00 00       	nop
    303c:	4c c0       	rjmp	.+152    	; 0x30d6 <__bad_interrupt>
    303e:	00 00       	nop
    3040:	4a c0       	rjmp	.+148    	; 0x30d6 <__bad_interrupt>
    3042:	00 00       	nop
    3044:	48 c0       	rjmp	.+144    	; 0x30d6 <__bad_interrupt>
    3046:	00 00       	nop
    3048:	46 c0       	rjmp	.+140    	; 0x30d6 <__bad_interrupt>
    304a:	00 00       	nop
    304c:	44 c0       	rjmp	.+136    	; 0x30d6 <__bad_interrupt>
    304e:	00 00       	nop
    3050:	42 c0       	rjmp	.+132    	; 0x30d6 <__bad_interrupt>
    3052:	00 00       	nop
    3054:	40 c0       	rjmp	.+128    	; 0x30d6 <__bad_interrupt>
    3056:	00 00       	nop
    3058:	3e c0       	rjmp	.+124    	; 0x30d6 <__bad_interrupt>
    305a:	00 00       	nop
    305c:	c4 c3       	rjmp	.+1928   	; 0x37e6 <__vector_23>
    305e:	00 00       	nop
    3060:	3a c0       	rjmp	.+116    	; 0x30d6 <__bad_interrupt>
    3062:	00 00       	nop
    3064:	38 c0       	rjmp	.+112    	; 0x30d6 <__bad_interrupt>
    3066:	00 00       	nop
    3068:	36 c0       	rjmp	.+108    	; 0x30d6 <__bad_interrupt>
    306a:	00 00       	nop
    306c:	34 c0       	rjmp	.+104    	; 0x30d6 <__bad_interrupt>
    306e:	00 00       	nop
    3070:	32 c0       	rjmp	.+100    	; 0x30d6 <__bad_interrupt>
    3072:	00 00       	nop

00003074 <__ctors_end>:
    3074:	11 24       	eor	r1, r1
    3076:	1f be       	out	0x3f, r1	; 63
    3078:	cf ef       	ldi	r28, 0xFF	; 255
    307a:	d2 e0       	ldi	r29, 0x02	; 2
    307c:	de bf       	out	0x3e, r29	; 62
    307e:	cd bf       	out	0x3d, r28	; 61

00003080 <Application_Jump_Check>:
/** Special startup routine to check if the bootloader was started via a watchdog reset, and if the magic application
 *  start key has been loaded into \ref MagicBootKey. If the bootloader started via the watchdog and the key is valid,
 *  this will force the user application to start via a software jump.
 */
void Application_Jump_Check(void)
{
    3080:	04 b6       	in	r0, 0x34	; 52
    3082:	03 fe       	sbrs	r0, 3
    3084:	13 c0       	rjmp	.+38     	; 0x30ac <__do_copy_data>
	/* If the reset source was the bootloader and the key is correct, clear it and jump to the application */
	if ((MCUSR & (1 << WDRF)) && (MagicBootKey == MAGIC_BOOT_KEY))
    3086:	80 91 e6 01 	lds	r24, 0x01E6
    308a:	82 34       	cpi	r24, 0x42	; 66
    308c:	79 f4       	brne	.+30     	; 0x30ac <__do_copy_data>
	/* If a request has been made to jump to the user application, honor it */
	{
		/* Turn off the watchdog */
		MCUSR &= ~(1 << WDRF);
    308e:	84 b7       	in	r24, 0x34	; 52
    3090:	87 7f       	andi	r24, 0xF7	; 247
    3092:	84 bf       	out	0x34, r24	; 52
		wdt_disable();
    3094:	88 e1       	ldi	r24, 0x18	; 24
    3096:	0f b6       	in	r0, 0x3f	; 63
    3098:	f8 94       	cli
    309a:	80 93 60 00 	sts	0x0060, r24
    309e:	10 92 60 00 	sts	0x0060, r1
    30a2:	0f be       	out	0x3f, r0	; 63

		/* Clear the boot key and jump to the user application */
		MagicBootKey = 0;
    30a4:	10 92 e6 01 	sts	0x01E6, r1

		// cppcheck-suppress constStatement
		//((void(*)(void))0x0000)();
		__asm__ volatile("jmp 0x0000");
    30a8:	0c 94 00 00 	jmp	0	; 0x0 <__heap_end>

000030ac <__do_copy_data>:
    30ac:	11 e0       	ldi	r17, 0x01	; 1
    30ae:	a0 e0       	ldi	r26, 0x00	; 0
    30b0:	b1 e0       	ldi	r27, 0x01	; 1
    30b2:	e6 ef       	ldi	r30, 0xF6	; 246
    30b4:	fe e3       	ldi	r31, 0x3E	; 62
    30b6:	02 c0       	rjmp	.+4      	; 0x30bc <__do_copy_data+0x10>
    30b8:	05 90       	lpm	r0, Z+
    30ba:	0d 92       	st	X+, r0
    30bc:	a4 39       	cpi	r26, 0x94	; 148
    30be:	b1 07       	cpc	r27, r17
    30c0:	d9 f7       	brne	.-10     	; 0x30b8 <__do_copy_data+0xc>

000030c2 <__do_clear_bss>:
    30c2:	11 e0       	ldi	r17, 0x01	; 1
    30c4:	a4 e9       	ldi	r26, 0x94	; 148
    30c6:	b1 e0       	ldi	r27, 0x01	; 1
    30c8:	01 c0       	rjmp	.+2      	; 0x30cc <.do_clear_bss_start>

000030ca <.do_clear_bss_loop>:
    30ca:	1d 92       	st	X+, r1

000030cc <.do_clear_bss_start>:
    30cc:	a6 3e       	cpi	r26, 0xE6	; 230
    30ce:	b1 07       	cpc	r27, r17
    30d0:	e1 f7       	brne	.-8      	; 0x30ca <.do_clear_bss_loop>
    30d2:	35 d0       	rcall	.+106    	; 0x313e <main>
    30d4:	0e c7       	rjmp	.+3612   	; 0x3ef2 <_exit>

000030d6 <__bad_interrupt>:
    30d6:	94 cf       	rjmp	.-216    	; 0x3000 <__vectors>

000030d8 <FetchNextCommandByte>:
			 */
			static inline void Endpoint_SelectEndpoint(const uint8_t Address) ATTR_ALWAYS_INLINE;
			static inline void Endpoint_SelectEndpoint(const uint8_t Address)
			{
				#if !defined(CONTROL_ONLY_DEVICE)
					UENUM = (Address & ENDPOINT_EPNUM_MASK);
    30d8:	84 e0       	ldi	r24, 0x04	; 4
    30da:	80 93 e9 00 	sts	0x00E9, r24
    30de:	0d c0       	rjmp	.+26     	; 0x30fa <FetchNextCommandByte+0x22>
			 */
			static inline void Endpoint_ClearOUT(void) ATTR_ALWAYS_INLINE;
			static inline void Endpoint_ClearOUT(void)
			{
				#if !defined(CONTROL_ONLY_DEVICE)
					UEINTX &= ~((1 << RXOUTI) | (1 << FIFOCON));
    30e0:	80 91 e8 00 	lds	r24, 0x00E8
    30e4:	8b 77       	andi	r24, 0x7B	; 123
    30e6:	80 93 e8 00 	sts	0x00E8, r24
    30ea:	03 c0       	rjmp	.+6      	; 0x30f2 <FetchNextCommandByte+0x1a>
	{
		Endpoint_ClearOUT();

		while (!(Endpoint_IsOUTReceived()))
		{
			if (USB_DeviceState == DEVICE_STATE_Unattached)
    30ec:	8e b3       	in	r24, 0x1e	; 30
    30ee:	88 23       	and	r24, r24
    30f0:	59 f0       	breq	.+22     	; 0x3108 <FetchNextCommandByte+0x30>
			 *  \return Boolean \c true if current endpoint is has received an OUT packet, \c false otherwise.
			 */
			static inline bool Endpoint_IsOUTReceived(void) ATTR_WARN_UNUSED_RESULT ATTR_ALWAYS_INLINE;
			static inline bool Endpoint_IsOUTReceived(void)
			{
				return ((UEINTX & (1 << RXOUTI)) ? true : false);
    30f2:	80 91 e8 00 	lds	r24, 0x00E8
	/* If OUT endpoint empty, clear it and wait for the next packet from the host */
	while (!(Endpoint_IsReadWriteAllowed()))
	{
		Endpoint_ClearOUT();

		while (!(Endpoint_IsOUTReceived()))
    30f6:	82 ff       	sbrs	r24, 2
    30f8:	f9 cf       	rjmp	.-14     	; 0x30ec <FetchNextCommandByte+0x14>
			 *          on its direction.
			 */
			static inline bool Endpoint_IsReadWriteAllowed(void) ATTR_WARN_UNUSED_RESULT ATTR_ALWAYS_INLINE;
			static inline bool Endpoint_IsReadWriteAllowed(void)
			{
				return ((UEINTX & (1 << RWAL)) ? true : false);
    30fa:	80 91 e8 00 	lds	r24, 0x00E8
{
	/* Select the OUT endpoint so that the next data byte can be read */
	Endpoint_SelectEndpoint(CDC_RX_EPADDR);

	/* If OUT endpoint empty, clear it and wait for the next packet from the host */
	while (!(Endpoint_IsReadWriteAllowed()))
    30fe:	85 ff       	sbrs	r24, 5
    3100:	ef cf       	rjmp	.-34     	; 0x30e0 <FetchNextCommandByte+0x8>
			 *  \return Next byte in the currently selected endpoint's FIFO buffer.
			 */
			static inline uint8_t Endpoint_Read_8(void) ATTR_WARN_UNUSED_RESULT ATTR_ALWAYS_INLINE;
			static inline uint8_t Endpoint_Read_8(void)
			{
				return UEDATX;
    3102:	80 91 f1 00 	lds	r24, 0x00F1
				return 0;
		}
	}

	/* Fetch the next byte from the OUT endpoint */
	return Endpoint_Read_8();
    3106:	08 95       	ret
		Endpoint_ClearOUT();

		while (!(Endpoint_IsOUTReceived()))
		{
			if (USB_DeviceState == DEVICE_STATE_Unattached)
				return 0;
    3108:	80 e0       	ldi	r24, 0x00	; 0
		}
	}

	/* Fetch the next byte from the OUT endpoint */
	return Endpoint_Read_8();
}
    310a:	08 95       	ret

0000310c <WriteNextResponseByte>:
			 */
			static inline void Endpoint_SelectEndpoint(const uint8_t Address) ATTR_ALWAYS_INLINE;
			static inline void Endpoint_SelectEndpoint(const uint8_t Address)
			{
				#if !defined(CONTROL_ONLY_DEVICE)
					UENUM = (Address & ENDPOINT_EPNUM_MASK);
    310c:	93 e0       	ldi	r25, 0x03	; 3
    310e:	90 93 e9 00 	sts	0x00E9, r25
			 *          on its direction.
			 */
			static inline bool Endpoint_IsReadWriteAllowed(void) ATTR_WARN_UNUSED_RESULT ATTR_ALWAYS_INLINE;
			static inline bool Endpoint_IsReadWriteAllowed(void)
			{
				return ((UEINTX & (1 << RWAL)) ? true : false);
    3112:	90 91 e8 00 	lds	r25, 0x00E8
{
	/* Select the IN endpoint so that the next data byte can be written */
	Endpoint_SelectEndpoint(CDC_TX_EPADDR);

	/* If IN endpoint full, clear it and wait until ready for the next packet to the host */
	if (!(Endpoint_IsReadWriteAllowed()))
    3116:	95 ff       	sbrs	r25, 5
    3118:	03 c0       	rjmp	.+6      	; 0x3120 <WriteNextResponseByte+0x14>
			 *  \param[in] Data  Data to write into the the currently selected endpoint's FIFO buffer.
			 */
			static inline void Endpoint_Write_8(const uint8_t Data) ATTR_ALWAYS_INLINE;
			static inline void Endpoint_Write_8(const uint8_t Data)
			{
				UEDATX = Data;
    311a:	80 93 f1 00 	sts	0x00F1, r24
    311e:	08 95       	ret
			 */
			static inline void Endpoint_ClearIN(void) ATTR_ALWAYS_INLINE;
			static inline void Endpoint_ClearIN(void)
			{
				#if !defined(CONTROL_ONLY_DEVICE)
					UEINTX &= ~((1 << TXINI) | (1 << FIFOCON));
    3120:	90 91 e8 00 	lds	r25, 0x00E8
    3124:	9e 77       	andi	r25, 0x7E	; 126
    3126:	90 93 e8 00 	sts	0x00E8, r25
    312a:	03 c0       	rjmp	.+6      	; 0x3132 <WriteNextResponseByte+0x26>
	{
		Endpoint_ClearIN();

		while (!(Endpoint_IsINReady()))
		{
			if (USB_DeviceState == DEVICE_STATE_Unattached)
    312c:	9e b3       	in	r25, 0x1e	; 30
    312e:	99 23       	and	r25, r25
    3130:	29 f0       	breq	.+10     	; 0x313c <WriteNextResponseByte+0x30>
			 *  \return Boolean \c true if the current endpoint is ready for an IN packet, \c false otherwise.
			 */
			static inline bool Endpoint_IsINReady(void) ATTR_WARN_UNUSED_RESULT ATTR_ALWAYS_INLINE;
			static inline bool Endpoint_IsINReady(void)
			{
				return ((UEINTX & (1 << TXINI)) ? true : false);
    3132:	90 91 e8 00 	lds	r25, 0x00E8
	/* If IN endpoint full, clear it and wait until ready for the next packet to the host */
	if (!(Endpoint_IsReadWriteAllowed()))
	{
		Endpoint_ClearIN();

		while (!(Endpoint_IsINReady()))
    3136:	90 ff       	sbrs	r25, 0
    3138:	f9 cf       	rjmp	.-14     	; 0x312c <WriteNextResponseByte+0x20>
    313a:	ef cf       	rjmp	.-34     	; 0x311a <WriteNextResponseByte+0xe>
    313c:	08 95       	ret

0000313e <main>:
/** Main program entry point. This routine configures the hardware required by the bootloader, then continuously
 *  runs the bootloader processing routine until instructed to soft-exit, or hard-reset via the watchdog to start
 *  the loaded application code.
 */
int main(void)
{
    313e:	cf 93       	push	r28
    3140:	df 93       	push	r29
    3142:	cd b7       	in	r28, 0x3d	; 61
    3144:	de b7       	in	r29, 0x3e	; 62
    3146:	27 97       	sbiw	r28, 0x07	; 7
    3148:	0f b6       	in	r0, 0x3f	; 63
    314a:	f8 94       	cli
    314c:	de bf       	out	0x3e, r29	; 62
    314e:	0f be       	out	0x3f, r0	; 63
    3150:	cd bf       	out	0x3d, r28	; 61

/** Configures all hardware required for the bootloader. */
static void SetupHardware(void)
{
	/* Disable watchdog if enabled by bootloader/fuses */
	MCUSR &= ~(1 << WDRF);
    3152:	84 b7       	in	r24, 0x34	; 52
    3154:	87 7f       	andi	r24, 0xF7	; 247
    3156:	84 bf       	out	0x34, r24	; 52
	wdt_disable();
    3158:	88 e1       	ldi	r24, 0x18	; 24
    315a:	0f b6       	in	r0, 0x3f	; 63
    315c:	f8 94       	cli
    315e:	80 93 60 00 	sts	0x0060, r24
    3162:	10 92 60 00 	sts	0x0060, r1
    3166:	0f be       	out	0x3f, r0	; 63
The type of x is clock_div_t.
*/
void clock_prescale_set(clock_div_t __x)
{
    uint8_t __tmp = _BV(CLKPCE);
    __asm__ __volatile__ (
    3168:	90 e0       	ldi	r25, 0x00	; 0
    316a:	80 e8       	ldi	r24, 0x80	; 128
    316c:	0f b6       	in	r0, 0x3f	; 63
    316e:	f8 94       	cli
    3170:	80 93 61 00 	sts	0x0061, r24
    3174:	90 93 61 00 	sts	0x0061, r25
    3178:	0f be       	out	0x3f, r0	; 63

	/* Disable clock division */
	clock_prescale_set(clock_div_1);

	/* Relocate the interrupt vector table to the bootloader section */
	MCUCR = (1 << IVCE);
    317a:	81 e0       	ldi	r24, 0x01	; 1
    317c:	85 bf       	out	0x35, r24	; 53
	MCUCR = (1 << IVSEL);
    317e:	82 e0       	ldi	r24, 0x02	; 2
    3180:	85 bf       	out	0x35, r24	; 53

	/* Initialize the USB and other board hardware drivers */
	USB_Init();
    3182:	b0 d4       	rcall	.+2400   	; 0x3ae4 <USB_Init>
    3184:	8a b1       	in	r24, 0x0a	; 10

	// compacter setup for Leds, RX, TX, Reset Line
	ARDUINO_DDR |= LEDS_ALL_LEDS | (1 << PD3) | AVR_RESET_LINE_MASK;
    3186:	88 6b       	ori	r24, 0xB8	; 184
    3188:	8a b9       	out	0x0a, r24	; 10
    318a:	8b b1       	in	r24, 0x0b	; 11
	ARDUINO_PORT |= LEDS_ALL_LEDS | (1 << 2) | AVR_RESET_LINE_MASK;
    318c:	84 6b       	ori	r24, 0xB4	; 180
    318e:	8b b9       	out	0x0b, r24	; 11
    3190:	78 94       	sei
			static inline void GlobalInterruptEnable(void)
			{
				GCC_MEMORY_BARRIER();

				#if (ARCH == ARCH_AVR8)
				sei();
    3192:	01 e0       	ldi	r16, 0x01	; 1
				else
				{
					LowByte = FetchNextCommandByte();
				}

				HighByte = !HighByte;
    3194:	65 e0       	ldi	r22, 0x05	; 5

		/* If in FLASH programming mode, commit the page after writing */
		if (MemoryType == MEMORY_TYPE_FLASH)
		{
			/* Commit the flash page to memory */
			boot_page_write(PageStartAddress);
    3196:	86 2e       	mov	r8, r22
    3198:	79 e0       	ldi	r23, 0x09	; 9
	{
		WriteNextResponseByte(boot_lock_fuse_bits_get(GET_HIGH_FUSE_BITS));
	}
	else if (Command == AVR109_COMMAND_ReadExtendedFuses)
	{
		WriteNextResponseByte(boot_lock_fuse_bits_get(GET_EXTENDED_FUSE_BITS));
    319a:	b7 2e       	mov	r11, r23
    319c:	32 c2       	rjmp	.+1124   	; 0x3602 <main+0x4c4>
    319e:	24 e0       	ldi	r18, 0x04	; 4
			 */
			static inline void Endpoint_SelectEndpoint(const uint8_t Address) ATTR_ALWAYS_INLINE;
			static inline void Endpoint_SelectEndpoint(const uint8_t Address)
			{
				#if !defined(CONTROL_ONLY_DEVICE)
					UENUM = (Address & ENDPOINT_EPNUM_MASK);
    31a0:	20 93 e9 00 	sts	0x00E9, r18
    31a4:	80 91 e8 00 	lds	r24, 0x00E8
			 *  \return Boolean \c true if current endpoint is has received an OUT packet, \c false otherwise.
			 */
			static inline bool Endpoint_IsOUTReceived(void) ATTR_WARN_UNUSED_RESULT ATTR_ALWAYS_INLINE;
			static inline bool Endpoint_IsOUTReceived(void)
			{
				return ((UEINTX & (1 << RXOUTI)) ? true : false);
    31a8:	82 ff       	sbrs	r24, 2
{
	/* Select the OUT endpoint */
	Endpoint_SelectEndpoint(CDC_RX_EPADDR);

	/* Check if endpoint has a command in it sent from the host */
	if (Endpoint_IsOUTReceived()){
    31aa:	d5 c1       	rjmp	.+938    	; 0x3556 <main+0x418>
    31ac:	95 df       	rcall	.-214    	; 0x30d8 <FetchNextCommandByte>

		/* Read in the bootloader command (first byte sent from host) */
		uint8_t Command = FetchNextCommandByte();
    31ae:	98 2f       	mov	r25, r24
    31b0:	80 91 95 01 	lds	r24, 0x0195

		// USB-Serial Mode
		if (!CDCActive){
    31b4:	81 11       	cpse	r24, r1
    31b6:	10 c0       	rjmp	.+32     	; 0x31d8 <main+0x9a>
    31b8:	80 91 c8 00 	lds	r24, 0x00C8
			 *  \return Boolean \c true if a character can be queued for transmission immediately, \c false otherwise.
			 */
			static inline bool Serial_IsSendReady(void) ATTR_WARN_UNUSED_RESULT ATTR_ALWAYS_INLINE;
			static inline bool Serial_IsSendReady(void)
			{
				return ((UCSR1A & (1 << UDRE1)) ? true : false);
    31bc:	85 ff       	sbrs	r24, 5
    31be:	fc cf       	rjmp	.-8      	; 0x31b8 <main+0x7a>
			 *  \param[in] DataByte  Byte to transmit through the USART.
			 */
			static inline void Serial_SendByte(const char DataByte) ATTR_ALWAYS_INLINE;
			static inline void Serial_SendByte(const char DataByte)
			{
				while (!(Serial_IsSendReady()));
    31c0:	90 93 ce 00 	sts	0x00CE, r25
				UDR1 = DataByte;
    31c4:	80 91 f2 00 	lds	r24, 0x00F2
				#if (defined(USB_SERIES_6_AVR) || defined(USB_SERIES_7_AVR))
					return UEBCX;
				#elif defined(USB_SERIES_4_AVR)
					return (((uint16_t)UEBCHX << 8) | UEBCLX);
				#elif defined(USB_SERIES_2_AVR)
					return UEBCLX;
    31c8:	81 11       	cpse	r24, r1
    31ca:	c9 c1       	rjmp	.+914    	; 0x355e <main+0x420>
			/* Store received byte into the USART transmit buffer */
			Serial_SendByte(Command);

			// if endpoint is completely empty/read acknowledge that to the host
			if (!(Endpoint_BytesInEndpoint()))
    31cc:	80 91 e8 00 	lds	r24, 0x00E8
			 */
			static inline void Endpoint_ClearOUT(void) ATTR_ALWAYS_INLINE;
			static inline void Endpoint_ClearOUT(void)
			{
				#if !defined(CONTROL_ONLY_DEVICE)
					UEINTX &= ~((1 << RXOUTI) | (1 << FIFOCON));
    31d0:	8b 77       	andi	r24, 0x7B	; 123
    31d2:	80 93 e8 00 	sts	0x00E8, r24
    31d6:	c3 c1       	rjmp	.+902    	; 0x355e <main+0x420>
    31d8:	95 34       	cpi	r25, 0x45	; 69
    31da:	19 f4       	brne	.+6      	; 0x31e2 <main+0xa4>
			return;
	}
}

static void Bootloader_Task(const uint8_t Command){
	if (Command == AVR109_COMMAND_ExitBootloader)
    31dc:	10 92 00 01 	sts	0x0100, r1
	{
		RunBootloader = false;
    31e0:	07 c0       	rjmp	.+14     	; 0x31f0 <main+0xb2>
    31e2:	89 2f       	mov	r24, r25
    31e4:	88 57       	subi	r24, 0x78	; 120

		/* Send confirmation byte back to the host */
		WriteNextResponseByte('\r');
	}
	else if ((Command == AVR109_COMMAND_SetLED) || (Command == AVR109_COMMAND_ClearLED) ||
    31e6:	82 30       	cpi	r24, 0x02	; 2
    31e8:	10 f0       	brcs	.+4      	; 0x31ee <main+0xb0>
    31ea:	94 35       	cpi	r25, 0x54	; 84
    31ec:	19 f4       	brne	.+6      	; 0x31f4 <main+0xb6>
    31ee:	74 df       	rcall	.-280    	; 0x30d8 <FetchNextCommandByte>
    31f0:	8d e0       	ldi	r24, 0x0D	; 13
		(Command == AVR109_COMMAND_SelectDeviceType))
	{
		FetchNextCommandByte();
    31f2:	ab c1       	rjmp	.+854    	; 0x354a <main+0x40c>
    31f4:	90 35       	cpi	r25, 0x50	; 80

		/* Send confirmation byte back to the host */
		WriteNextResponseByte('\r');
    31f6:	e1 f3       	breq	.-8      	; 0x31f0 <main+0xb2>
    31f8:	9c 34       	cpi	r25, 0x4C	; 76
	}
	else if ((Command == AVR109_COMMAND_EnterProgrammingMode) || (Command == AVR109_COMMAND_LeaveProgrammingMode))
    31fa:	09 f4       	brne	.+2      	; 0x31fe <main+0xc0>
    31fc:	f9 cf       	rjmp	.-14     	; 0x31f0 <main+0xb2>
    31fe:	94 37       	cpi	r25, 0x74	; 116
    3200:	21 f4       	brne	.+8      	; 0x320a <main+0xcc>
    3202:	84 e4       	ldi	r24, 0x44	; 68
	{
		/* Send confirmation byte back to the host */
		WriteNextResponseByte('\r');
	}
	else if (Command == AVR109_COMMAND_ReadPartCode)
    3204:	83 df       	rcall	.-250    	; 0x310c <WriteNextResponseByte>
    3206:	80 e0       	ldi	r24, 0x00	; 0
	{
		//TODO needed?
		/* Return ATMEGA128 part code - this is only to allow AVRProg to use the bootloader */
		WriteNextResponseByte(0x44);
    3208:	a0 c1       	rjmp	.+832    	; 0x354a <main+0x40c>
    320a:	91 36       	cpi	r25, 0x61	; 97
    320c:	11 f4       	brne	.+4      	; 0x3212 <main+0xd4>
		WriteNextResponseByte(0x00);
    320e:	89 e5       	ldi	r24, 0x59	; 89
    3210:	9c c1       	rjmp	.+824    	; 0x354a <main+0x40c>
	}
	else if (Command == AVR109_COMMAND_ReadAutoAddressIncrement)
    3212:	91 34       	cpi	r25, 0x41	; 65
    3214:	d1 f4       	brne	.+52     	; 0x324a <main+0x10c>
	{
		/* Indicate auto-address increment is supported */
		WriteNextResponseByte('Y');
    3216:	60 df       	rcall	.-320    	; 0x30d8 <FetchNextCommandByte>
    3218:	18 2f       	mov	r17, r24
	}
	else if (Command == AVR109_COMMAND_SetCurrentAddress)
    321a:	5e df       	rcall	.-324    	; 0x30d8 <FetchNextCommandByte>
    321c:	90 e0       	ldi	r25, 0x00	; 0
	{
		/* Set the current address to that given by the host (translate 16-bit word address to byte address) */
		CurrAddress = (FetchNextCommandByte() << 9);
    321e:	88 0f       	add	r24, r24
    3220:	99 1f       	adc	r25, r25
    3222:	11 0f       	add	r17, r17
		CurrAddress |= (FetchNextCommandByte() << 1);
    3224:	1a 83       	std	Y+2, r17	; 0x02
    3226:	19 82       	std	Y+1, r1	; 0x01
    3228:	29 81       	ldd	r18, Y+1	; 0x01
    322a:	3a 81       	ldd	r19, Y+2	; 0x02
    322c:	82 2b       	or	r24, r18
		WriteNextResponseByte('Y');
	}
	else if (Command == AVR109_COMMAND_SetCurrentAddress)
	{
		/* Set the current address to that given by the host (translate 16-bit word address to byte address) */
		CurrAddress = (FetchNextCommandByte() << 9);
    322e:	93 2b       	or	r25, r19
    3230:	aa 27       	eor	r26, r26
    3232:	97 fd       	sbrc	r25, 7
		CurrAddress |= (FetchNextCommandByte() << 1);
    3234:	a0 95       	com	r26
    3236:	ba 2f       	mov	r27, r26
    3238:	80 93 d7 01 	sts	0x01D7, r24
    323c:	90 93 d8 01 	sts	0x01D8, r25
    3240:	a0 93 d9 01 	sts	0x01D9, r26
    3244:	b0 93 da 01 	sts	0x01DA, r27
    3248:	d3 cf       	rjmp	.-90     	; 0x31f0 <main+0xb2>
    324a:	90 37       	cpi	r25, 0x70	; 112
    324c:	11 f4       	brne	.+4      	; 0x3252 <main+0x114>
    324e:	83 e5       	ldi	r24, 0x53	; 83
    3250:	7c c1       	rjmp	.+760    	; 0x354a <main+0x40c>
    3252:	93 35       	cpi	r25, 0x53	; 83
    3254:	71 f4       	brne	.+28     	; 0x3272 <main+0x134>

		/* Send confirmation byte back to the host */
		WriteNextResponseByte('\r');
	}
	else if (Command == AVR109_COMMAND_ReadBootloaderInterface)
    3256:	4c e8       	ldi	r20, 0x8C	; 140
    3258:	e4 2e       	mov	r14, r20
	{
		/* Indicate serial programmer back to the host */
		WriteNextResponseByte('S');
    325a:	41 e0       	ldi	r20, 0x01	; 1
    325c:	f4 2e       	mov	r15, r20
	}
	else if (Command == AVR109_COMMAND_ReadBootloaderIdentifier)
    325e:	f7 01       	movw	r30, r14
    3260:	81 91       	ld	r24, Z+
    3262:	7f 01       	movw	r14, r30
    3264:	53 df       	rcall	.-346    	; 0x310c <WriteNextResponseByte>
    3266:	f3 e9       	ldi	r31, 0x93	; 147
    3268:	ef 16       	cp	r14, r31
	{
		/* Write the 7-byte software identifier to the endpoint */
		for (uint8_t CurrByte = 0; CurrByte < 7; CurrByte++)
			WriteNextResponseByte(SOFTWARE_IDENTIFIER[CurrByte]);
    326a:	f1 e0       	ldi	r31, 0x01	; 1
    326c:	ff 06       	cpc	r15, r31
    326e:	b9 f7       	brne	.-18     	; 0x325e <main+0x120>
    3270:	76 c1       	rjmp	.+748    	; 0x355e <main+0x420>
    3272:	96 35       	cpi	r25, 0x56	; 86
		WriteNextResponseByte('S');
	}
	else if (Command == AVR109_COMMAND_ReadBootloaderIdentifier)
	{
		/* Write the 7-byte software identifier to the endpoint */
		for (uint8_t CurrByte = 0; CurrByte < 7; CurrByte++)
    3274:	21 f4       	brne	.+8      	; 0x327e <main+0x140>
    3276:	81 e3       	ldi	r24, 0x31	; 49
    3278:	49 df       	rcall	.-366    	; 0x310c <WriteNextResponseByte>
    327a:	80 e3       	ldi	r24, 0x30	; 48
    327c:	66 c1       	rjmp	.+716    	; 0x354a <main+0x40c>
    327e:	93 37       	cpi	r25, 0x73	; 115
			WriteNextResponseByte(SOFTWARE_IDENTIFIER[CurrByte]);
	}
	else if (Command == AVR109_COMMAND_ReadBootloaderSWVersion)
    3280:	31 f4       	brne	.+12     	; 0x328e <main+0x150>
    3282:	82 e8       	ldi	r24, 0x82	; 130
	{
		WriteNextResponseByte('0' + BOOTLOADER_VERSION_MAJOR);
    3284:	43 df       	rcall	.-378    	; 0x310c <WriteNextResponseByte>
    3286:	84 e9       	ldi	r24, 0x94	; 148
    3288:	41 df       	rcall	.-382    	; 0x310c <WriteNextResponseByte>
		WriteNextResponseByte('0' + BOOTLOADER_VERSION_MINOR);
    328a:	8e e1       	ldi	r24, 0x1E	; 30
    328c:	5e c1       	rjmp	.+700    	; 0x354a <main+0x40c>
	}
	else if (Command == AVR109_COMMAND_ReadSignature)
    328e:	95 36       	cpi	r25, 0x65	; 101
    3290:	b1 f4       	brne	.+44     	; 0x32be <main+0x180>
	{
		WriteNextResponseByte(AVR_SIGNATURE_3);
    3292:	e0 e0       	ldi	r30, 0x00	; 0
    3294:	f0 e0       	ldi	r31, 0x00	; 0
    3296:	23 e0       	ldi	r18, 0x03	; 3
		WriteNextResponseByte(AVR_SIGNATURE_2);
    3298:	20 93 57 00 	sts	0x0057, r18
    329c:	e8 95       	spm
		WriteNextResponseByte(AVR_SIGNATURE_1);
    329e:	07 b6       	in	r0, 0x37	; 55
    32a0:	00 fc       	sbrc	r0, 0
	}
	else if (Command == AVR109_COMMAND_EraseFLASH)
    32a2:	fd cf       	rjmp	.-6      	; 0x329e <main+0x160>
    32a4:	80 92 57 00 	sts	0x0057, r8
    32a8:	e8 95       	spm
	{
		/* Clear the application section of flash */
		for (uint32_t CurrFlashAddress = 0; CurrFlashAddress < (uint32_t)BOOT_START_ADDR; CurrFlashAddress += SPM_PAGESIZE)
		{
			boot_page_erase(CurrFlashAddress);
    32aa:	07 b6       	in	r0, 0x37	; 55
    32ac:	00 fc       	sbrc	r0, 0
    32ae:	fd cf       	rjmp	.-6      	; 0x32aa <main+0x16c>
    32b0:	e0 58       	subi	r30, 0x80	; 128
			boot_spm_busy_wait();
    32b2:	ff 4f       	sbci	r31, 0xFF	; 255
    32b4:	e1 15       	cp	r30, r1
    32b6:	30 e3       	ldi	r19, 0x30	; 48
			boot_page_write(CurrFlashAddress);
    32b8:	f3 07       	cpc	r31, r19
    32ba:	69 f7       	brne	.-38     	; 0x3296 <main+0x158>
    32bc:	99 cf       	rjmp	.-206    	; 0x31f0 <main+0xb2>
			boot_spm_busy_wait();
    32be:	92 37       	cpi	r25, 0x72	; 114
    32c0:	19 f4       	brne	.+6      	; 0x32c8 <main+0x18a>
    32c2:	e1 e0       	ldi	r30, 0x01	; 1
    32c4:	f0 e0       	ldi	r31, 0x00	; 0
    32c6:	0e c0       	rjmp	.+28     	; 0x32e4 <main+0x1a6>
		WriteNextResponseByte(AVR_SIGNATURE_1);
	}
	else if (Command == AVR109_COMMAND_EraseFLASH)
	{
		/* Clear the application section of flash */
		for (uint32_t CurrFlashAddress = 0; CurrFlashAddress < (uint32_t)BOOT_START_ADDR; CurrFlashAddress += SPM_PAGESIZE)
    32c8:	96 34       	cpi	r25, 0x46	; 70
    32ca:	19 f4       	brne	.+6      	; 0x32d2 <main+0x194>
    32cc:	e0 e0       	ldi	r30, 0x00	; 0
    32ce:	f0 e0       	ldi	r31, 0x00	; 0
    32d0:	09 c0       	rjmp	.+18     	; 0x32e4 <main+0x1a6>

		/* Send confirmation byte back to the host */
		WriteNextResponseByte('\r');
	}
#endif
	else if (Command == AVR109_COMMAND_ReadLockbits)
    32d2:	9e 34       	cpi	r25, 0x4E	; 78
    32d4:	19 f4       	brne	.+6      	; 0x32dc <main+0x19e>
	{
		WriteNextResponseByte(boot_lock_fuse_bits_get(GET_LOCK_BITS));
    32d6:	e3 e0       	ldi	r30, 0x03	; 3
    32d8:	f0 e0       	ldi	r31, 0x00	; 0
    32da:	04 c0       	rjmp	.+8      	; 0x32e4 <main+0x1a6>
	}
	else if (Command == AVR109_COMMAND_ReadLowFuses)
    32dc:	91 35       	cpi	r25, 0x51	; 81
    32de:	31 f4       	brne	.+12     	; 0x32ec <main+0x1ae>
	{
		WriteNextResponseByte(boot_lock_fuse_bits_get(GET_LOW_FUSE_BITS));
    32e0:	e2 e0       	ldi	r30, 0x02	; 2
    32e2:	f0 e0       	ldi	r31, 0x00	; 0
    32e4:	b0 92 57 00 	sts	0x0057, r11
	}
	else if (Command == AVR109_COMMAND_ReadHighFuses)
    32e8:	84 91       	lpm	r24, Z+
	{
		WriteNextResponseByte(boot_lock_fuse_bits_get(GET_HIGH_FUSE_BITS));
    32ea:	2f c1       	rjmp	.+606    	; 0x354a <main+0x40c>
    32ec:	92 36       	cpi	r25, 0x62	; 98
    32ee:	31 f4       	brne	.+12     	; 0x32fc <main+0x1be>
	}
	else if (Command == AVR109_COMMAND_ReadExtendedFuses)
    32f0:	89 e5       	ldi	r24, 0x59	; 89
    32f2:	0c df       	rcall	.-488    	; 0x310c <WriteNextResponseByte>
	{
		WriteNextResponseByte(boot_lock_fuse_bits_get(GET_EXTENDED_FUSE_BITS));
    32f4:	80 e0       	ldi	r24, 0x00	; 0
    32f6:	0a df       	rcall	.-492    	; 0x310c <WriteNextResponseByte>
    32f8:	80 e8       	ldi	r24, 0x80	; 128
    32fa:	27 c1       	rjmp	.+590    	; 0x354a <main+0x40c>
    32fc:	92 34       	cpi	r25, 0x42	; 66
    32fe:	19 f0       	breq	.+6      	; 0x3306 <main+0x1c8>
	}
#if !defined(NO_BLOCK_SUPPORT)
	else if (Command == AVR109_COMMAND_GetBlockWriteSupport)
    3300:	97 36       	cpi	r25, 0x67	; 103
    3302:	09 f0       	breq	.+2      	; 0x3306 <main+0x1c8>
	{
		WriteNextResponseByte('Y');
    3304:	d8 c0       	rjmp	.+432    	; 0x34b6 <main+0x378>
    3306:	9d 83       	std	Y+5, r25	; 0x05
    3308:	e7 de       	rcall	.-562    	; 0x30d8 <FetchNextCommandByte>

		/* Send block size to the host */
		WriteNextResponseByte(SPM_PAGESIZE >> 8);
    330a:	78 2e       	mov	r7, r24
    330c:	61 2c       	mov	r6, r1
    330e:	e4 de       	rcall	.-568    	; 0x30d8 <FetchNextCommandByte>
		WriteNextResponseByte(SPM_PAGESIZE & 0xFF);
    3310:	93 01       	movw	r18, r6
    3312:	28 2b       	or	r18, r24
	}
	else if ((Command == AVR109_COMMAND_BlockWrite) || (Command == AVR109_COMMAND_BlockRead))
    3314:	3f 83       	std	Y+7, r19	; 0x07
    3316:	2e 83       	std	Y+6, r18	; 0x06
    3318:	df de       	rcall	.-578    	; 0x30d8 <FetchNextCommandByte>
    331a:	18 2f       	mov	r17, r24
    331c:	85 54       	subi	r24, 0x45	; 69
	char     MemoryType;

	uint8_t  HighByte = 0;
	uint8_t  LowByte = 0;

	BlockSize = (FetchNextCommandByte() << 8);
    331e:	9d 81       	ldd	r25, Y+5	; 0x05
    3320:	82 30       	cpi	r24, 0x02	; 2
    3322:	10 f0       	brcs	.+4      	; 0x3328 <main+0x1ea>
    3324:	8f e3       	ldi	r24, 0x3F	; 63
    3326:	11 c1       	rjmp	.+546    	; 0x354a <main+0x40c>
	BlockSize |= FetchNextCommandByte();
    3328:	97 36       	cpi	r25, 0x67	; 103
    332a:	09 f0       	breq	.+2      	; 0x332e <main+0x1f0>
    332c:	48 c0       	rjmp	.+144    	; 0x33be <main+0x280>
    332e:	31 e1       	ldi	r19, 0x11	; 17
    3330:	30 93 57 00 	sts	0x0057, r19

	MemoryType = FetchNextCommandByte();
    3334:	e8 95       	spm
    3336:	a1 2c       	mov	r10, r1
    3338:	3c c0       	rjmp	.+120    	; 0x33b2 <main+0x274>

	if ((MemoryType != MEMORY_TYPE_FLASH) && (MemoryType != MEMORY_TYPE_EEPROM))
    333a:	c0 90 d7 01 	lds	r12, 0x01D7
    333e:	d0 90 d8 01 	lds	r13, 0x01D8
	{
		/* Send error byte back to the host */
		WriteNextResponseByte('?');
    3342:	e0 90 d9 01 	lds	r14, 0x01D9

		return;
	}

	/* Check if command is to read a memory block */
	if (Command == AVR109_COMMAND_BlockRead)
    3346:	f0 90 da 01 	lds	r15, 0x01DA
    334a:	16 34       	cpi	r17, 0x46	; 70
	{
		/* Re-enable RWW section */
		boot_rww_enable();
    334c:	b9 f4       	brne	.+46     	; 0x337c <main+0x23e>
    334e:	ea 2d       	mov	r30, r10
    3350:	f0 e0       	ldi	r31, 0x00	; 0
    3352:	ec 29       	or	r30, r12
static void ReadWriteMemoryBlock(const uint8_t Command)
{
	uint16_t BlockSize;
	char     MemoryType;

	uint8_t  HighByte = 0;
    3354:	fd 29       	or	r31, r13
    3356:	84 91       	lpm	r24, Z+
    3358:	d9 de       	rcall	.-590    	; 0x310c <WriteNextResponseByte>
    335a:	aa 20       	and	r10, r10
    335c:	69 f0       	breq	.+26     	; 0x3378 <main+0x23a>
    335e:	82 e0       	ldi	r24, 0x02	; 2
    3360:	c8 0e       	add	r12, r24
    3362:	d1 1c       	adc	r13, r1
    3364:	e1 1c       	adc	r14, r1
    3366:	f1 1c       	adc	r15, r1
		/* Re-enable RWW section */
		boot_rww_enable();

		while (BlockSize--)
		{
			if (MemoryType == MEMORY_TYPE_FLASH)
    3368:	c0 92 d7 01 	sts	0x01D7, r12
			{
				/* Read the next FLASH byte from the current FLASH page */
#if (FLASHEND > 0xFFFF)
				WriteNextResponseByte(pgm_read_byte_far(CurrAddress | HighByte));
#else
				WriteNextResponseByte(pgm_read_byte(CurrAddress | HighByte));
    336c:	d0 92 d8 01 	sts	0x01D8, r13
    3370:	e0 92 d9 01 	sts	0x01D9, r14
    3374:	f0 92 da 01 	sts	0x01DA, r15
    3378:	a0 26       	eor	r10, r16
#endif

				/* If both bytes in current word have been read, increment the address counter */
				if (HighByte)
    337a:	15 c0       	rjmp	.+42     	; 0x33a6 <main+0x268>
    337c:	d7 01       	movw	r26, r14
					CurrAddress += 2;
    337e:	c6 01       	movw	r24, r12
    3380:	b6 95       	lsr	r27
    3382:	a7 95       	ror	r26
    3384:	97 95       	ror	r25
    3386:	87 95       	ror	r24
    3388:	9e d5       	rcall	.+2876   	; 0x3ec6 <__eerd_byte_usb162>
    338a:	c0 de       	rcall	.-640    	; 0x310c <WriteNextResponseByte>
    338c:	92 e0       	ldi	r25, 0x02	; 2
    338e:	c9 0e       	add	r12, r25
    3390:	d1 1c       	adc	r13, r1
    3392:	e1 1c       	adc	r14, r1
    3394:	f1 1c       	adc	r15, r1
    3396:	c0 92 d7 01 	sts	0x01D7, r12

				HighByte = !HighByte;
    339a:	d0 92 d8 01 	sts	0x01D8, r13
			}
			else
			{
				/* Read the next EEPROM byte into the endpoint */
				WriteNextResponseByte(eeprom_read_byte((uint8_t*)(intptr_t)(CurrAddress >> 1)));
    339e:	e0 92 d9 01 	sts	0x01D9, r14
    33a2:	f0 92 da 01 	sts	0x01DA, r15
    33a6:	2e 81       	ldd	r18, Y+6	; 0x06
    33a8:	3f 81       	ldd	r19, Y+7	; 0x07
    33aa:	21 50       	subi	r18, 0x01	; 1
    33ac:	31 09       	sbc	r19, r1
    33ae:	3f 83       	std	Y+7, r19	; 0x07

				/* Increment the address counter after use */
				CurrAddress += 2;
    33b0:	2e 83       	std	Y+6, r18	; 0x06
    33b2:	2e 81       	ldd	r18, Y+6	; 0x06
    33b4:	3f 81       	ldd	r19, Y+7	; 0x07
    33b6:	23 2b       	or	r18, r19
    33b8:	09 f0       	breq	.+2      	; 0x33bc <main+0x27e>
    33ba:	bf cf       	rjmp	.-130    	; 0x333a <main+0x1fc>
    33bc:	d0 c0       	rjmp	.+416    	; 0x355e <main+0x420>
    33be:	c0 90 d7 01 	lds	r12, 0x01D7
    33c2:	d0 90 d8 01 	lds	r13, 0x01D8
    33c6:	e0 90 d9 01 	lds	r14, 0x01D9
    33ca:	f0 90 da 01 	lds	r15, 0x01DA
    33ce:	16 34       	cpi	r17, 0x46	; 70
    33d0:	09 f0       	breq	.+2      	; 0x33d4 <main+0x296>
    33d2:	5f c0       	rjmp	.+190    	; 0x3492 <main+0x354>
    33d4:	23 e0       	ldi	r18, 0x03	; 3
	if (Command == AVR109_COMMAND_BlockRead)
	{
		/* Re-enable RWW section */
		boot_rww_enable();

		while (BlockSize--)
    33d6:	f6 01       	movw	r30, r12
    33d8:	20 93 57 00 	sts	0x0057, r18
    33dc:	e8 95       	spm
    33de:	07 b6       	in	r0, 0x37	; 55
    33e0:	00 fc       	sbrc	r0, 0
			}
		}
	}
	else
	{
		uint32_t PageStartAddress = CurrAddress;
    33e2:	fd cf       	rjmp	.-6      	; 0x33de <main+0x2a0>
    33e4:	56 c0       	rjmp	.+172    	; 0x3492 <main+0x354>
    33e6:	16 34       	cpi	r17, 0x46	; 70
    33e8:	59 f5       	brne	.+86     	; 0x3440 <main+0x302>
    33ea:	aa 20       	and	r10, r10
    33ec:	11 f1       	breq	.+68     	; 0x3432 <main+0x2f4>
    33ee:	20 90 d7 01 	lds	r2, 0x01D7

		if (MemoryType == MEMORY_TYPE_FLASH)
    33f2:	30 90 d8 01 	lds	r3, 0x01D8
    33f6:	40 90 d9 01 	lds	r4, 0x01D9
		{
			boot_page_erase(PageStartAddress);
    33fa:	50 90 da 01 	lds	r5, 0x01DA
    33fe:	6c de       	rcall	.-808    	; 0x30d8 <FetchNextCommandByte>
    3400:	8c 83       	std	Y+4, r24	; 0x04
			boot_spm_busy_wait();
    3402:	1b 82       	std	Y+3, r1	; 0x03
    3404:	2b 81       	ldd	r18, Y+3	; 0x03
    3406:	3c 81       	ldd	r19, Y+4	; 0x04
    3408:	29 29       	or	r18, r9
		}

		while (BlockSize--)
		{
			if (MemoryType == MEMORY_TYPE_FLASH)
    340a:	f1 01       	movw	r30, r2
    340c:	09 01       	movw	r0, r18
			{
				/* If both bytes in current word have been written, increment the address counter */
				if (HighByte)
    340e:	00 93 57 00 	sts	0x0057, r16
				{
					/* Write the next FLASH word to the current FLASH page */
					boot_page_fill(CurrAddress, ((FetchNextCommandByte() << 8) | LowByte));
    3412:	e8 95       	spm
    3414:	11 24       	eor	r1, r1
    3416:	d2 01       	movw	r26, r4
    3418:	c1 01       	movw	r24, r2
    341a:	02 96       	adiw	r24, 0x02	; 2
    341c:	a1 1d       	adc	r26, r1
    341e:	b1 1d       	adc	r27, r1
    3420:	80 93 d7 01 	sts	0x01D7, r24
    3424:	90 93 d8 01 	sts	0x01D8, r25
    3428:	a0 93 d9 01 	sts	0x01D9, r26
    342c:	b0 93 da 01 	sts	0x01DA, r27
    3430:	02 c0       	rjmp	.+4      	; 0x3436 <main+0x2f8>
    3432:	52 de       	rcall	.-860    	; 0x30d8 <FetchNextCommandByte>
    3434:	98 2e       	mov	r9, r24
    3436:	81 e0       	ldi	r24, 0x01	; 1
    3438:	a1 10       	cpse	r10, r1
    343a:	80 e0       	ldi	r24, 0x00	; 0

					/* Increment the address counter after use */
					CurrAddress += 2;
    343c:	a8 2e       	mov	r10, r24
    343e:	22 c0       	rjmp	.+68     	; 0x3484 <main+0x346>
    3440:	4b de       	rcall	.-874    	; 0x30d8 <FetchNextCommandByte>
    3442:	68 2f       	mov	r22, r24
    3444:	80 91 d7 01 	lds	r24, 0x01D7
    3448:	90 91 d8 01 	lds	r25, 0x01D8
    344c:	a0 91 d9 01 	lds	r26, 0x01D9
    3450:	b0 91 da 01 	lds	r27, 0x01DA
    3454:	b6 95       	lsr	r27
    3456:	a7 95       	ror	r26
				}
				else
				{
					LowByte = FetchNextCommandByte();
    3458:	97 95       	ror	r25
    345a:	87 95       	ror	r24
    345c:	3c d5       	rcall	.+2680   	; 0x3ed6 <__eewr_byte_usb162>
				}

				HighByte = !HighByte;
    345e:	80 91 d7 01 	lds	r24, 0x01D7
    3462:	90 91 d8 01 	lds	r25, 0x01D8
    3466:	a0 91 d9 01 	lds	r26, 0x01D9
			}
			else
			{
				/* Write the next EEPROM byte from the endpoint */
				eeprom_write_byte((uint8_t*)((intptr_t)(CurrAddress >> 1)), FetchNextCommandByte());
    346a:	b0 91 da 01 	lds	r27, 0x01DA
    346e:	02 96       	adiw	r24, 0x02	; 2
    3470:	a1 1d       	adc	r26, r1
    3472:	b1 1d       	adc	r27, r1
    3474:	80 93 d7 01 	sts	0x01D7, r24
    3478:	90 93 d8 01 	sts	0x01D8, r25
    347c:	a0 93 d9 01 	sts	0x01D9, r26
    3480:	b0 93 da 01 	sts	0x01DA, r27
    3484:	2e 81       	ldd	r18, Y+6	; 0x06
    3486:	3f 81       	ldd	r19, Y+7	; 0x07
    3488:	21 50       	subi	r18, 0x01	; 1

				/* Increment the address counter after use */
				CurrAddress += 2;
    348a:	31 09       	sbc	r19, r1
    348c:	3f 83       	std	Y+7, r19	; 0x07
    348e:	2e 83       	std	Y+6, r18	; 0x06
    3490:	02 c0       	rjmp	.+4      	; 0x3496 <main+0x358>
    3492:	91 2c       	mov	r9, r1
    3494:	a1 2c       	mov	r10, r1
    3496:	2e 81       	ldd	r18, Y+6	; 0x06
    3498:	3f 81       	ldd	r19, Y+7	; 0x07
    349a:	23 2b       	or	r18, r19
    349c:	09 f0       	breq	.+2      	; 0x34a0 <main+0x362>
    349e:	a3 cf       	rjmp	.-186    	; 0x33e6 <main+0x2a8>
    34a0:	16 34       	cpi	r17, 0x46	; 70
    34a2:	09 f0       	breq	.+2      	; 0x34a6 <main+0x368>
    34a4:	a5 ce       	rjmp	.-694    	; 0x31f0 <main+0xb2>
    34a6:	f6 01       	movw	r30, r12
    34a8:	80 92 57 00 	sts	0x0057, r8
    34ac:	e8 95       	spm
    34ae:	07 b6       	in	r0, 0x37	; 55
    34b0:	00 fc       	sbrc	r0, 0
    34b2:	fd cf       	rjmp	.-6      	; 0x34ae <main+0x370>
    34b4:	9d ce       	rjmp	.-710    	; 0x31f0 <main+0xb2>
    34b6:	93 34       	cpi	r25, 0x43	; 67
    34b8:	69 f4       	brne	.+26     	; 0x34d4 <main+0x396>
    34ba:	e0 90 d7 01 	lds	r14, 0x01D7
	}
	else
	{
		uint32_t PageStartAddress = CurrAddress;

		if (MemoryType == MEMORY_TYPE_FLASH)
    34be:	f0 90 d8 01 	lds	r15, 0x01D8
		{
			boot_page_erase(PageStartAddress);
			boot_spm_busy_wait();
		}

		while (BlockSize--)
    34c2:	0a de       	rcall	.-1004   	; 0x30d8 <FetchNextCommandByte>
    34c4:	90 e0       	ldi	r25, 0x00	; 0
    34c6:	f7 01       	movw	r30, r14
    34c8:	0c 01       	movw	r0, r24
    34ca:	00 93 57 00 	sts	0x0057, r16
				CurrAddress += 2;
			}
		}

		/* If in FLASH programming mode, commit the page after writing */
		if (MemoryType == MEMORY_TYPE_FLASH)
    34ce:	e8 95       	spm
    34d0:	11 24       	eor	r1, r1
		{
			/* Commit the flash page to memory */
			boot_page_write(PageStartAddress);
    34d2:	8e ce       	rjmp	.-740    	; 0x31f0 <main+0xb2>
    34d4:	93 36       	cpi	r25, 0x63	; 99
    34d6:	09 f5       	brne	.+66     	; 0x351a <main+0x3dc>
    34d8:	c0 90 d7 01 	lds	r12, 0x01D7

			/* Wait until write operation has completed */
			boot_spm_busy_wait();
    34dc:	d0 90 d8 01 	lds	r13, 0x01D8
    34e0:	e0 90 d9 01 	lds	r14, 0x01D9
		/* Delegate the block write/read to a separate function for clarity */
		ReadWriteMemoryBlock(Command);
	}
#endif
#if !defined(NO_FLASH_BYTE_SUPPORT)
	else if (Command == AVR109_COMMAND_FillFlashPageWordHigh)
    34e4:	f0 90 da 01 	lds	r15, 0x01DA
	{
		/* Write the high byte to the current flash page */
		boot_page_fill(CurrAddress, FetchNextCommandByte());
    34e8:	f7 dd       	rcall	.-1042   	; 0x30d8 <FetchNextCommandByte>
    34ea:	b7 01       	movw	r22, r14
    34ec:	a6 01       	movw	r20, r12
    34ee:	41 60       	ori	r20, 0x01	; 1
    34f0:	90 e0       	ldi	r25, 0x00	; 0
    34f2:	fa 01       	movw	r30, r20
    34f4:	0c 01       	movw	r0, r24
    34f6:	00 93 57 00 	sts	0x0057, r16
    34fa:	e8 95       	spm
    34fc:	11 24       	eor	r1, r1
    34fe:	f2 e0       	ldi	r31, 0x02	; 2
    3500:	cf 0e       	add	r12, r31

		/* Send confirmation byte back to the host */
		WriteNextResponseByte('\r');
	}
	else if (Command == AVR109_COMMAND_FillFlashPageWordLow)
    3502:	d1 1c       	adc	r13, r1
    3504:	e1 1c       	adc	r14, r1
	{
		/* Write the low byte to the current flash page */
		boot_page_fill(CurrAddress | 0x01, FetchNextCommandByte());
    3506:	f1 1c       	adc	r15, r1
    3508:	c0 92 d7 01 	sts	0x01D7, r12
    350c:	d0 92 d8 01 	sts	0x01D8, r13
    3510:	e0 92 d9 01 	sts	0x01D9, r14
    3514:	f0 92 da 01 	sts	0x01DA, r15
    3518:	6b ce       	rjmp	.-810    	; 0x31f0 <main+0xb2>
    351a:	9d 36       	cpi	r25, 0x6D	; 109
    351c:	59 f4       	brne	.+22     	; 0x3534 <main+0x3f6>
    351e:	e0 91 d7 01 	lds	r30, 0x01D7
    3522:	f0 91 d8 01 	lds	r31, 0x01D8
    3526:	80 92 57 00 	sts	0x0057, r8
    352a:	e8 95       	spm
    352c:	07 b6       	in	r0, 0x37	; 55

		/* Increment the address */
		CurrAddress += 2;
    352e:	00 fc       	sbrc	r0, 0
    3530:	fd cf       	rjmp	.-6      	; 0x352c <main+0x3ee>
    3532:	5e ce       	rjmp	.-836    	; 0x31f0 <main+0xb2>
    3534:	92 35       	cpi	r25, 0x52	; 82
    3536:	59 f4       	brne	.+22     	; 0x354e <main+0x410>
    3538:	e0 91 d7 01 	lds	r30, 0x01D7
    353c:	f0 91 d8 01 	lds	r31, 0x01D8
    3540:	e5 90       	lpm	r14, Z+
    3542:	f4 90       	lpm	r15, Z+
    3544:	8f 2d       	mov	r24, r15
    3546:	e2 dd       	rcall	.-1084   	; 0x310c <WriteNextResponseByte>
    3548:	8e 2d       	mov	r24, r14

		/* Send confirmation byte back to the host */
		WriteNextResponseByte('\r');
	}
	else if (Command == AVR109_COMMAND_WriteFlashPage)
    354a:	e0 dd       	rcall	.-1088   	; 0x310c <WriteNextResponseByte>
    354c:	08 c0       	rjmp	.+16     	; 0x355e <main+0x420>
	{
		/* Commit the flash page to memory */
		boot_page_write(CurrAddress);
    354e:	9b 31       	cpi	r25, 0x1B	; 27
    3550:	09 f0       	breq	.+2      	; 0x3554 <main+0x416>
    3552:	e8 ce       	rjmp	.-560    	; 0x3324 <main+0x1e6>
    3554:	04 c0       	rjmp	.+8      	; 0x355e <main+0x420>
    3556:	80 91 95 01 	lds	r24, 0x0195
    355a:	81 11       	cpse	r24, r1

		/* Wait until write operation has completed */
		boot_spm_busy_wait();
    355c:	51 c0       	rjmp	.+162    	; 0x3600 <main+0x4c2>
    355e:	8f b7       	in	r24, 0x3f	; 63
    3560:	f8 94       	cli
    3562:	10 91 94 01 	lds	r17, 0x0194

		/* Send confirmation byte back to the host */
		WriteNextResponseByte('\r');
	}
	else if (Command == AVR109_COMMAND_ReadFLASHWord)
    3566:	8f bf       	out	0x3f, r24	; 63
	{
#if (FLASHEND > 0xFFFF)
		uint16_t ProgramWord = pgm_read_word_far(CurrAddress);
#else
		uint16_t ProgramWord = pgm_read_word(CurrAddress);
    3568:	80 91 95 01 	lds	r24, 0x0195
    356c:	81 11       	cpse	r24, r1
    356e:	19 c0       	rjmp	.+50     	; 0x35a2 <main+0x464>
    3570:	11 11       	cpse	r17, r1
    3572:	17 c0       	rjmp	.+46     	; 0x35a2 <main+0x464>
#endif

		WriteNextResponseByte(ProgramWord >> 8);
    3574:	45 c0       	rjmp	.+138    	; 0x3600 <main+0x4c2>
    3576:	f0 90 96 01 	lds	r15, 0x0196
		WriteNextResponseByte(ProgramWord & 0xFF);
    357a:	ef 2d       	mov	r30, r15
    357c:	f0 e0       	ldi	r31, 0x00	; 0
    357e:	e9 56       	subi	r30, 0x69	; 105
    3580:	fe 4f       	sbci	r31, 0xFE	; 254

		/* Increment the address after use */
		CurrAddress += 2;
	}
#endif
	else if (Command != AVR109_COMMAND_Sync)
    3582:	80 81       	ld	r24, Z
    3584:	c3 dd       	rcall	.-1146   	; 0x310c <WriteNextResponseByte>
    3586:	8f 2d       	mov	r24, r15
    3588:	8f 5f       	subi	r24, 0xFF	; 255
		// Bootloader Mode
		else
			Bootloader_Task(Command);
	}
	// nothing received in Bootloader mode
	else if (CDCActive)
    358a:	8f 73       	andi	r24, 0x3F	; 63
    358c:	80 93 96 01 	sts	0x0196, r24
    3590:	9f b7       	in	r25, 0x3f	; 63
			static inline uint_reg_t GetGlobalInterruptMask(void)
			{
				GCC_MEMORY_BARRIER();

				#if (ARCH == ARCH_AVR8)
				return SREG;
    3592:	f8 94       	cli
			static inline void GlobalInterruptDisable(void)
			{
				GCC_MEMORY_BARRIER();

				#if (ARCH == ARCH_AVR8)
				cli();
    3594:	80 91 94 01 	lds	r24, 0x0194

	uint_reg_t CurrentGlobalInt = GetGlobalInterruptMask();
	GlobalInterruptDisable();

	// Buffercount is 0 in Bootloader mode
	BytesToSend = BufferCount;
    3598:	81 50       	subi	r24, 0x01	; 1
			static inline void SetGlobalInterruptMask(const uint_reg_t GlobalIntState)
			{
				GCC_MEMORY_BARRIER();

				#if (ARCH == ARCH_AVR8)
				SREG = GlobalIntState;
    359a:	80 93 94 01 	sts	0x0194, r24

	SetGlobalInterruptMask(CurrentGlobalInt);


	// dont try to flush data in USB-Serial mode if there is no data. This will block the USB
	if (!CDCActive && !BytesToSend)
    359e:	9f bf       	out	0x3f, r25	; 63
    35a0:	11 50       	subi	r17, 0x01	; 1
    35a2:	11 11       	cpse	r17, r1
    35a4:	e8 cf       	rjmp	.-48     	; 0x3576 <main+0x438>
    35a6:	23 e0       	ldi	r18, 0x03	; 3
    35a8:	20 93 e9 00 	sts	0x00E9, r18
		return;

	// Read bytes from the USART receive buffer into the USB IN endpoint, max 1 bank size
	while (BytesToSend--){
		// Write the Data to the Endpoint */
		WriteNextResponseByte(USARTtoUSB_Buffer_Data[BufferIndex++]);
    35ac:	90 91 e8 00 	lds	r25, 0x00E8
    35b0:	80 91 e8 00 	lds	r24, 0x00E8
    35b4:	8e 77       	andi	r24, 0x7E	; 126
    35b6:	80 93 e8 00 	sts	0x00E8, r24
    35ba:	95 fd       	sbrc	r25, 5
    35bc:	11 c0       	rjmp	.+34     	; 0x35e0 <main+0x4a2>
    35be:	80 91 e8 00 	lds	r24, 0x00E8

		// increase the buffer position and wrap around if needed
		BufferIndex %= BUFFER_SIZE;
    35c2:	80 fd       	sbrc	r24, 0
    35c4:	04 c0       	rjmp	.+8      	; 0x35ce <main+0x490>
			static inline uint_reg_t GetGlobalInterruptMask(void)
			{
				GCC_MEMORY_BARRIER();

				#if (ARCH == ARCH_AVR8)
				return SREG;
    35c6:	8e b3       	in	r24, 0x1e	; 30
			static inline void GlobalInterruptDisable(void)
			{
				GCC_MEMORY_BARRIER();

				#if (ARCH == ARCH_AVR8)
				cli();
    35c8:	81 11       	cpse	r24, r1
		// turn off interrupts to save the value properly
		uint_reg_t CurrentGlobalInt = GetGlobalInterruptMask();
		GlobalInterruptDisable();

		// decrease buffer count
		BufferCount--;
    35ca:	f9 cf       	rjmp	.-14     	; 0x35be <main+0x480>
    35cc:	0d c0       	rjmp	.+26     	; 0x35e8 <main+0x4aa>
    35ce:	80 91 e8 00 	lds	r24, 0x00E8
    35d2:	8e 77       	andi	r24, 0x7E	; 126
			static inline void SetGlobalInterruptMask(const uint_reg_t GlobalIntState)
			{
				GCC_MEMORY_BARRIER();

				#if (ARCH == ARCH_AVR8)
				SREG = GlobalIntState;
    35d4:	80 93 e8 00 	sts	0x00E8, r24
	// dont try to flush data in USB-Serial mode if there is no data. This will block the USB
	if (!CDCActive && !BytesToSend)
		return;

	// Read bytes from the USART receive buffer into the USB IN endpoint, max 1 bank size
	while (BytesToSend--){
    35d8:	03 c0       	rjmp	.+6      	; 0x35e0 <main+0x4a2>
    35da:	8e b3       	in	r24, 0x1e	; 30
			 */
			static inline void Endpoint_SelectEndpoint(const uint8_t Address) ATTR_ALWAYS_INLINE;
			static inline void Endpoint_SelectEndpoint(const uint8_t Address)
			{
				#if !defined(CONTROL_ONLY_DEVICE)
					UENUM = (Address & ENDPOINT_EPNUM_MASK);
    35dc:	88 23       	and	r24, r24
    35de:	21 f0       	breq	.+8      	; 0x35e8 <main+0x4aa>
    35e0:	80 91 e8 00 	lds	r24, 0x00E8
			 *          on its direction.
			 */
			static inline bool Endpoint_IsReadWriteAllowed(void) ATTR_WARN_UNUSED_RESULT ATTR_ALWAYS_INLINE;
			static inline bool Endpoint_IsReadWriteAllowed(void)
			{
				return ((UEINTX & (1 << RWAL)) ? true : false);
    35e4:	80 ff       	sbrs	r24, 0
			 */
			static inline void Endpoint_ClearIN(void) ATTR_ALWAYS_INLINE;
			static inline void Endpoint_ClearIN(void)
			{
				#if !defined(CONTROL_ONLY_DEVICE)
					UEINTX &= ~((1 << TXINI) | (1 << FIFOCON));
    35e6:	f9 cf       	rjmp	.-14     	; 0x35da <main+0x49c>
    35e8:	80 91 95 01 	lds	r24, 0x0195
    35ec:	88 23       	and	r24, r24
    35ee:	41 f0       	breq	.+16     	; 0x3600 <main+0x4c2>

	// Send the endpoint data to the host */
	Endpoint_ClearIN();

	// If a full endpoint's worth of data was sent, we need to send an empty packet afterwards to signal end of transfer
	if (IsEndpointFull)
    35f0:	34 e0       	ldi	r19, 0x04	; 4
    35f2:	30 93 e9 00 	sts	0x00E9, r19
			 *  \return Boolean \c true if the current endpoint is ready for an IN packet, \c false otherwise.
			 */
			static inline bool Endpoint_IsINReady(void) ATTR_WARN_UNUSED_RESULT ATTR_ALWAYS_INLINE;
			static inline bool Endpoint_IsINReady(void)
			{
				return ((UEINTX & (1 << TXINI)) ? true : false);
    35f6:	80 91 e8 00 	lds	r24, 0x00E8
	{
		// wait for the sending to flush
		while (!(Endpoint_IsINReady()))
    35fa:	8b 77       	andi	r24, 0x7B	; 123
		{
			if (USB_DeviceState == DEVICE_STATE_Unattached)
    35fc:	80 93 e8 00 	sts	0x00E8, r24
    3600:	25 d4       	rcall	.+2122   	; 0x3e4c <USB_USBTask>
    3602:	80 91 00 01 	lds	r24, 0x0100
			 */
			static inline void Endpoint_ClearIN(void) ATTR_ALWAYS_INLINE;
			static inline void Endpoint_ClearIN(void)
			{
				#if !defined(CONTROL_ONLY_DEVICE)
					UEINTX &= ~((1 << TXINI) | (1 << FIFOCON));
    3606:	81 11       	cpse	r24, r1
    3608:	ca cd       	rjmp	.-1132   	; 0x319e <main+0x60>
    360a:	80 91 e0 00 	lds	r24, 0x00E0
    360e:	81 60       	ori	r24, 0x01	; 1
	}

	// Wait until the data has been sent to the host
	while (!(Endpoint_IsINReady()))
	{
		if (USB_DeviceState == DEVICE_STATE_Unattached)
    3610:	80 93 e0 00 	sts	0x00E0, r24
    3614:	82 e4       	ldi	r24, 0x42	; 66
			 *  \return Boolean \c true if the current endpoint is ready for an IN packet, \c false otherwise.
			 */
			static inline bool Endpoint_IsINReady(void) ATTR_WARN_UNUSED_RESULT ATTR_ALWAYS_INLINE;
			static inline bool Endpoint_IsINReady(void)
			{
				return ((UEINTX & (1 << TXINI)) ? true : false);
    3616:	80 93 e6 01 	sts	0x01E6, r24
		// send a zero length package
		Endpoint_ClearIN();
	}

	// Wait until the data has been sent to the host
	while (!(Endpoint_IsINReady()))
    361a:	2c e0       	ldi	r18, 0x0C	; 12
    361c:	88 e1       	ldi	r24, 0x18	; 24
	}

	FlushCDC();

	// in Bootloader mode clear the Out endpoint
	if (CDCActive){
    361e:	90 e0       	ldi	r25, 0x00	; 0
    3620:	0f b6       	in	r0, 0x3f	; 63
    3622:	f8 94       	cli
    3624:	a8 95       	wdr
			 */
			static inline void Endpoint_SelectEndpoint(const uint8_t Address) ATTR_ALWAYS_INLINE;
			static inline void Endpoint_SelectEndpoint(const uint8_t Address)
			{
				#if !defined(CONTROL_ONLY_DEVICE)
					UENUM = (Address & ENDPOINT_EPNUM_MASK);
    3626:	80 93 60 00 	sts	0x0060, r24
    362a:	0f be       	out	0x3f, r0	; 63
			 */
			static inline void Endpoint_ClearOUT(void) ATTR_ALWAYS_INLINE;
			static inline void Endpoint_ClearOUT(void)
			{
				#if !defined(CONTROL_ONLY_DEVICE)
					UEINTX &= ~((1 << RXOUTI) | (1 << FIFOCON));
    362c:	20 93 60 00 	sts	0x0060, r18
    3630:	ff cf       	rjmp	.-2      	; 0x3630 <main+0x4f2>

00003632 <EVENT_USB_Device_ConfigurationChanged>:

/** Event handler for the USB_ConfigurationChanged event. This configures the device's endpoints ready
 *  to relay data to and from the attached USB host.
 */
void EVENT_USB_Device_ConfigurationChanged(void)
{
    3632:	42 e0       	ldi	r20, 0x02	; 2
    3634:	61 ec       	ldi	r22, 0xC1	; 193

	while (RunBootloader)
	{
		//TODO remove
		CDC_Task();
		USB_USBTask();
    3636:	82 e0       	ldi	r24, 0x02	; 2
    3638:	ee d1       	rcall	.+988    	; 0x3a16 <Endpoint_ConfigureEndpoint_Prv>
	SetupHardware();

	/* Enable global interrupts so that the USB stack can function */
	GlobalInterruptEnable();

	while (RunBootloader)
    363a:	42 e1       	ldi	r20, 0x12	; 18
    363c:	61 e8       	ldi	r22, 0x81	; 129
    363e:	83 e0       	ldi	r24, 0x03	; 3
    3640:	ea d1       	rcall	.+980    	; 0x3a16 <Endpoint_ConfigureEndpoint_Prv>
			 *  enumerating the device once attached until \ref USB_Attach() is called.
			 */
			static inline void USB_Detach(void) ATTR_ALWAYS_INLINE;
			static inline void USB_Detach(void)
			{
				UDCON  |=  (1 << DETACH);
    3642:	42 e1       	ldi	r20, 0x12	; 18
    3644:	60 e8       	ldi	r22, 0x80	; 128
    3646:	84 e0       	ldi	r24, 0x04	; 4
    3648:	e6 c1       	rjmp	.+972    	; 0x3a16 <Endpoint_ConfigureEndpoint_Prv>

0000364a <EVENT_USB_Device_ControlRequest>:
/** Event handler for the USB_ControlRequest event. This is used to catch and process control requests sent to
 *  the device from the USB host before passing along unhandled control requests to the library for processing
 *  internally.
 */
void EVENT_USB_Device_ControlRequest(void)
{
    364a:	cf 93       	push	r28

	/* Disconnect from the host - USB interface will be reset later along with the AVR */
	USB_Detach();

	/* Unlock the forced application start mode of the bootloader if it is restarted */
	MagicBootKey = MAGIC_BOOT_KEY;
    364c:	80 91 de 01 	lds	r24, 0x01DE
    3650:	98 2f       	mov	r25, r24

	/* Enable the watchdog and force a timeout to reset the AVR */
	wdt_enable(WDTO_250MS);
    3652:	9f 77       	andi	r25, 0x7F	; 127
    3654:	91 32       	cpi	r25, 0x21	; 33
    3656:	09 f0       	breq	.+2      	; 0x365a <EVENT_USB_Device_ControlRequest+0x10>
    3658:	c4 c0       	rjmp	.+392    	; 0x37e2 <EVENT_USB_Device_ControlRequest+0x198>
	{
		return;
	}

	/* Process CDC specific control requests */
	switch (USB_ControlRequest.bRequest)
    365a:	90 91 df 01 	lds	r25, 0x01DF
    365e:	91 32       	cpi	r25, 0x21	; 33
    3660:	39 f0       	breq	.+14     	; 0x3670 <EVENT_USB_Device_ControlRequest+0x26>
    3662:	92 32       	cpi	r25, 0x22	; 34
    3664:	09 f4       	brne	.+2      	; 0x3668 <EVENT_USB_Device_ControlRequest+0x1e>
    3666:	aa c0       	rjmp	.+340    	; 0x37bc <EVENT_USB_Device_ControlRequest+0x172>
    3668:	90 32       	cpi	r25, 0x20	; 32
    366a:	09 f0       	breq	.+2      	; 0x366e <EVENT_USB_Device_ControlRequest+0x24>
    366c:	ba c0       	rjmp	.+372    	; 0x37e2 <EVENT_USB_Device_ControlRequest+0x198>
    366e:	13 c0       	rjmp	.+38     	; 0x3696 <EVENT_USB_Device_ControlRequest+0x4c>
	{
	case CDC_REQ_GetLineEncoding:
		if (USB_ControlRequest.bmRequestType == (REQDIR_DEVICETOHOST | REQTYPE_CLASS | REQREC_INTERFACE))
    3670:	81 3a       	cpi	r24, 0xA1	; 161
    3672:	09 f0       	breq	.+2      	; 0x3676 <EVENT_USB_Device_ControlRequest+0x2c>
    3674:	b6 c0       	rjmp	.+364    	; 0x37e2 <EVENT_USB_Device_ControlRequest+0x198>
			 *  \note This is not applicable for non CONTROL type endpoints.
			 */
			static inline void Endpoint_ClearSETUP(void) ATTR_ALWAYS_INLINE;
			static inline void Endpoint_ClearSETUP(void)
			{
				UEINTX &= ~(1 << RXSTPI);
    3676:	80 91 e8 00 	lds	r24, 0x00E8
    367a:	87 7f       	andi	r24, 0xF7	; 247
    367c:	80 93 e8 00 	sts	0x00E8, r24
		{
			Endpoint_ClearSETUP();

			/* Write the line coding data to the control endpoint */
			// this one is not inline because its already used somewhere in the usb core, so it will dupe code
			Endpoint_Write_Control_Stream_LE(&LineEncoding, sizeof(CDC_LineEncoding_t));
    3680:	67 e0       	ldi	r22, 0x07	; 7
    3682:	70 e0       	ldi	r23, 0x00	; 0
    3684:	81 e0       	ldi	r24, 0x01	; 1
    3686:	91 e0       	ldi	r25, 0x01	; 1
    3688:	64 d1       	rcall	.+712    	; 0x3952 <Endpoint_Write_Control_Stream_LE>
    368a:	80 91 e8 00 	lds	r24, 0x00E8
			 */
			static inline void Endpoint_ClearOUT(void) ATTR_ALWAYS_INLINE;
			static inline void Endpoint_ClearOUT(void)
			{
				#if !defined(CONTROL_ONLY_DEVICE)
					UEINTX &= ~((1 << RXOUTI) | (1 << FIFOCON));
    368e:	8b 77       	andi	r24, 0x7B	; 123
    3690:	80 93 e8 00 	sts	0x00E8, r24
    3694:	a6 c0       	rjmp	.+332    	; 0x37e2 <EVENT_USB_Device_ControlRequest+0x198>
    3696:	81 32       	cpi	r24, 0x21	; 33
			Endpoint_ClearOUT();
		}

		break;
	case CDC_REQ_SetLineEncoding:
		if (USB_ControlRequest.bmRequestType == (REQDIR_HOSTTODEVICE | REQTYPE_CLASS | REQREC_INTERFACE))
    3698:	09 f0       	breq	.+2      	; 0x369c <EVENT_USB_Device_ControlRequest+0x52>
    369a:	a3 c0       	rjmp	.+326    	; 0x37e2 <EVENT_USB_Device_ControlRequest+0x198>
    369c:	80 91 e8 00 	lds	r24, 0x00E8
			 *  \note This is not applicable for non CONTROL type endpoints.
			 */
			static inline void Endpoint_ClearSETUP(void) ATTR_ALWAYS_INLINE;
			static inline void Endpoint_ClearSETUP(void)
			{
				UEINTX &= ~(1 << RXSTPI);
    36a0:	87 7f       	andi	r24, 0xF7	; 247
    36a2:	80 93 e8 00 	sts	0x00E8, r24
    36a6:	27 e0       	ldi	r18, 0x07	; 7
			Endpoint_ClearSETUP();

			// Read the line coding data in from the host into the global struct (made inline)
			//Endpoint_Read_Control_Stream_LE(&LineEncoding, sizeof(CDC_LineEncoding_t));

			uint8_t Length = sizeof(CDC_LineEncoding_t);
    36a8:	81 e0       	ldi	r24, 0x01	; 1
			uint8_t* DataStream = (uint8_t*)&LineEncoding;
    36aa:	91 e0       	ldi	r25, 0x01	; 1
    36ac:	3e b3       	in	r19, 0x1e	; 30

			bool skip = false;
			while (Length)
			{
				uint8_t USB_DeviceState_LCL = USB_DeviceState;
    36ae:	33 23       	and	r19, r19

				if ((USB_DeviceState_LCL == DEVICE_STATE_Unattached) || (USB_DeviceState_LCL == DEVICE_STATE_Suspended) || (Endpoint_IsSETUPReceived())){
    36b0:	39 f1       	breq	.+78     	; 0x3700 <EVENT_USB_Device_ControlRequest+0xb6>
    36b2:	35 30       	cpi	r19, 0x05	; 5
    36b4:	29 f1       	breq	.+74     	; 0x3700 <EVENT_USB_Device_ControlRequest+0xb6>
    36b6:	30 91 e8 00 	lds	r19, 0x00E8
			 *  \return Boolean \c true if the selected endpoint has received a SETUP packet, \c false otherwise.
			 */
			static inline bool Endpoint_IsSETUPReceived(void) ATTR_WARN_UNUSED_RESULT ATTR_ALWAYS_INLINE;
			static inline bool Endpoint_IsSETUPReceived(void)
			{
				return ((UEINTX & (1 << RXSTPI)) ? true : false);
    36ba:	33 fd       	sbrc	r19, 3
    36bc:	21 c0       	rjmp	.+66     	; 0x3700 <EVENT_USB_Device_ControlRequest+0xb6>
    36be:	30 91 e8 00 	lds	r19, 0x00E8
			 *  \return Boolean \c true if current endpoint is has received an OUT packet, \c false otherwise.
			 */
			static inline bool Endpoint_IsOUTReceived(void) ATTR_WARN_UNUSED_RESULT ATTR_ALWAYS_INLINE;
			static inline bool Endpoint_IsOUTReceived(void)
			{
				return ((UEINTX & (1 << RXOUTI)) ? true : false);
    36c2:	32 ff       	sbrs	r19, 2
					skip = true;
					break;
				}

				if (Endpoint_IsOUTReceived())
    36c4:	f3 cf       	rjmp	.-26     	; 0x36ac <EVENT_USB_Device_ControlRequest+0x62>
    36c6:	fc 01       	movw	r30, r24
    36c8:	06 c0       	rjmp	.+12     	; 0x36d6 <EVENT_USB_Device_ControlRequest+0x8c>
    36ca:	80 91 f1 00 	lds	r24, 0x00F1
			 *  \return Next byte in the currently selected endpoint's FIFO buffer.
			 */
			static inline uint8_t Endpoint_Read_8(void) ATTR_WARN_UNUSED_RESULT ATTR_ALWAYS_INLINE;
			static inline uint8_t Endpoint_Read_8(void)
			{
				return UEDATX;
    36ce:	81 93       	st	Z+, r24
				{
					while (Length && Endpoint_BytesInEndpoint())
					{
						*DataStream = Endpoint_Read_8();
    36d0:	cf 01       	movw	r24, r30
						DataStream++;
    36d2:	21 50       	subi	r18, 0x01	; 1
						Length--;
    36d4:	29 f0       	breq	.+10     	; 0x36e0 <EVENT_USB_Device_ControlRequest+0x96>
					break;
				}

				if (Endpoint_IsOUTReceived())
				{
					while (Length && Endpoint_BytesInEndpoint())
    36d6:	cf 01       	movw	r24, r30
    36d8:	30 91 f2 00 	lds	r19, 0x00F2
				#if (defined(USB_SERIES_6_AVR) || defined(USB_SERIES_7_AVR))
					return UEBCX;
				#elif defined(USB_SERIES_4_AVR)
					return (((uint16_t)UEBCHX << 8) | UEBCLX);
				#elif defined(USB_SERIES_2_AVR)
					return UEBCLX;
    36dc:	31 11       	cpse	r19, r1
    36de:	f5 cf       	rjmp	.-22     	; 0x36ca <EVENT_USB_Device_ControlRequest+0x80>
    36e0:	30 91 e8 00 	lds	r19, 0x00E8
			 */
			static inline void Endpoint_ClearOUT(void) ATTR_ALWAYS_INLINE;
			static inline void Endpoint_ClearOUT(void)
			{
				#if !defined(CONTROL_ONLY_DEVICE)
					UEINTX &= ~((1 << RXOUTI) | (1 << FIFOCON));
    36e4:	3b 77       	andi	r19, 0x7B	; 123
    36e6:	30 93 e8 00 	sts	0x00E8, r19
    36ea:	21 11       	cpse	r18, r1

			uint8_t Length = sizeof(CDC_LineEncoding_t);
			uint8_t* DataStream = (uint8_t*)&LineEncoding;

			bool skip = false;
			while (Length)
    36ec:	df cf       	rjmp	.-66     	; 0x36ac <EVENT_USB_Device_ControlRequest+0x62>
    36ee:	80 91 e8 00 	lds	r24, 0x00E8
			 *  \return Boolean \c true if the current endpoint is ready for an IN packet, \c false otherwise.
			 */
			static inline bool Endpoint_IsINReady(void) ATTR_WARN_UNUSED_RESULT ATTR_ALWAYS_INLINE;
			static inline bool Endpoint_IsINReady(void)
			{
				return ((UEINTX & (1 << TXINI)) ? true : false);
    36f2:	80 fd       	sbrc	r24, 0
					Endpoint_ClearOUT();
				}
			}

			if (!skip)
				while (!(Endpoint_IsINReady()))
    36f4:	05 c0       	rjmp	.+10     	; 0x3700 <EVENT_USB_Device_ControlRequest+0xb6>
    36f6:	8e b3       	in	r24, 0x1e	; 30
				{
				uint8_t USB_DeviceState_LCL = USB_DeviceState;
    36f8:	88 23       	and	r24, r24

				if ((USB_DeviceState_LCL == DEVICE_STATE_Unattached) || (USB_DeviceState_LCL == DEVICE_STATE_Suspended))
    36fa:	11 f0       	breq	.+4      	; 0x3700 <EVENT_USB_Device_ControlRequest+0xb6>
    36fc:	85 30       	cpi	r24, 0x05	; 5
    36fe:	b9 f7       	brne	.-18     	; 0x36ee <EVENT_USB_Device_ControlRequest+0xa4>
    3700:	80 91 e8 00 	lds	r24, 0x00E8
			 */
			static inline void Endpoint_ClearIN(void) ATTR_ALWAYS_INLINE;
			static inline void Endpoint_ClearIN(void)
			{
				#if !defined(CONTROL_ONLY_DEVICE)
					UEINTX &= ~((1 << TXINI) | (1 << FIFOCON));
    3704:	8e 77       	andi	r24, 0x7E	; 126
    3706:	80 93 e8 00 	sts	0x00E8, r24
    370a:	20 91 01 01 	lds	r18, 0x0101

			// end of inline Endpoint_Read_Control_Stream_LE

			Endpoint_ClearIN();

			if (LineEncoding.BaudRateBPS == BAUDRATE_CDC_BOOTLOADER)
    370e:	30 91 02 01 	lds	r19, 0x0102
    3712:	40 91 03 01 	lds	r20, 0x0103
    3716:	50 91 04 01 	lds	r21, 0x0104
    371a:	21 15       	cp	r18, r1
    371c:	81 ee       	ldi	r24, 0xE1	; 225
    371e:	38 07       	cpc	r19, r24
    3720:	41 05       	cpc	r20, r1
    3722:	51 05       	cpc	r21, r1
    3724:	21 f4       	brne	.+8      	; 0x372e <EVENT_USB_Device_ControlRequest+0xe4>
    3726:	81 e0       	ldi	r24, 0x01	; 1
				CDCActive = true;
    3728:	80 93 95 01 	sts	0x0195, r24
    372c:	02 c0       	rjmp	.+4      	; 0x3732 <EVENT_USB_Device_ControlRequest+0xe8>
    372e:	10 92 95 01 	sts	0x0195, r1
			else
				CDCActive = false;
    3732:	10 92 94 01 	sts	0x0194, r1

			// reset buffer
			BufferCount = 0;
    3736:	10 92 96 01 	sts	0x0196, r1
			BufferIndex = 0;
    373a:	10 92 db 01 	sts	0x01DB, r1
			BufferEnd = 0;
    373e:	e0 91 06 01 	lds	r30, 0x0106
    3742:	e1 50       	subi	r30, 0x01	; 1
    3744:	e2 30       	cpi	r30, 0x02	; 2
    3746:	28 f4       	brcc	.+10     	; 0x3752 <EVENT_USB_Device_ControlRequest+0x108>
    3748:	f0 e0       	ldi	r31, 0x00	; 0
    374a:	e8 5f       	subi	r30, 0xF8	; 248
    374c:	fe 4f       	sbci	r31, 0xFE	; 254
    374e:	c0 81       	ld	r28, Z
    3750:	01 c0       	rjmp	.+2      	; 0x3754 <EVENT_USB_Device_ControlRequest+0x10a>
    3752:	c0 e0       	ldi	r28, 0x00	; 0
    3754:	80 91 05 01 	lds	r24, 0x0105
	case CDC_PARITY_Even:
		ConfigMask = (1 << UPM11);
		break;
	}

	if (LineEncoding.CharFormat == CDC_LINEENCODING_TwoStopBits)
    3758:	82 30       	cpi	r24, 0x02	; 2
    375a:	09 f4       	brne	.+2      	; 0x375e <EVENT_USB_Device_ControlRequest+0x114>
    375c:	c8 60       	ori	r28, 0x08	; 8
		ConfigMask |= (1 << USBS1);
    375e:	80 91 07 01 	lds	r24, 0x0107

	switch (LineEncoding.DataBits)
    3762:	87 30       	cpi	r24, 0x07	; 7
    3764:	31 f0       	breq	.+12     	; 0x3772 <EVENT_USB_Device_ControlRequest+0x128>
    3766:	88 30       	cpi	r24, 0x08	; 8
    3768:	31 f0       	breq	.+12     	; 0x3776 <EVENT_USB_Device_ControlRequest+0x12c>
    376a:	86 30       	cpi	r24, 0x06	; 6
    376c:	29 f4       	brne	.+10     	; 0x3778 <EVENT_USB_Device_ControlRequest+0x12e>
    376e:	c2 60       	ori	r28, 0x02	; 2
	{
	case 6:
		ConfigMask |= (1 << UCSZ10);
    3770:	03 c0       	rjmp	.+6      	; 0x3778 <EVENT_USB_Device_ControlRequest+0x12e>
    3772:	c4 60       	ori	r28, 0x04	; 4
		break;
	case 7:
		ConfigMask |= (1 << UCSZ11);
    3774:	01 c0       	rjmp	.+2      	; 0x3778 <EVENT_USB_Device_ControlRequest+0x12e>
    3776:	c6 60       	ori	r28, 0x06	; 6
		break;
	case 8:
		ConfigMask |= ((1 << UCSZ11) | (1 << UCSZ10));
    3778:	5b 9a       	sbi	0x0b, 3	; 11
		break;
	}

	/* Keep the TX line held high (idle) while the USART is reconfigured */
	PORTD |= (1 << 3);
    377a:	10 92 c9 00 	sts	0x00C9, r1

	/* Must turn off USART before reconfiguring it, otherwise incorrect operation may occur */
	UCSR1B = 0;
    377e:	10 92 c8 00 	sts	0x00C8, r1
	UCSR1A = 0;
    3782:	10 92 ca 00 	sts	0x00CA, r1
	UCSR1C = 0;
    3786:	ca 01       	movw	r24, r20

	/* Set the new baud rate before configuring the USART */
	UBRR1 = SERIAL_2X_UBBRVAL(LineEncoding.BaudRateBPS);
    3788:	b9 01       	movw	r22, r18
    378a:	96 95       	lsr	r25
    378c:	87 95       	ror	r24
    378e:	77 95       	ror	r23
    3790:	67 95       	ror	r22
    3792:	60 58       	subi	r22, 0x80	; 128
    3794:	7b 47       	sbci	r23, 0x7B	; 123
    3796:	81 4e       	sbci	r24, 0xE1	; 225
    3798:	9f 4f       	sbci	r25, 0xFF	; 255
    379a:	73 d3       	rcall	.+1766   	; 0x3e82 <__udivmodsi4>
    379c:	21 50       	subi	r18, 0x01	; 1
    379e:	31 09       	sbc	r19, r1
    37a0:	30 93 cd 00 	sts	0x00CD, r19
    37a4:	20 93 cc 00 	sts	0x00CC, r18
    37a8:	c0 93 ca 00 	sts	0x00CA, r28
	//UBRR1 = (LineEncoding.BaudRateBPS == 57600)
	//	? SERIAL_UBBRVAL(LineEncoding.BaudRateBPS)
	//	: SERIAL_2X_UBBRVAL(LineEncoding.BaudRateBPS);

	/* Reconfigure the USART in double speed mode for a wider baud rate range at the expense of accuracy */
	UCSR1C = ConfigMask;
    37ac:	82 e0       	ldi	r24, 0x02	; 2
    37ae:	80 93 c8 00 	sts	0x00C8, r24
	UCSR1A = (1 << U2X1);
    37b2:	88 e9       	ldi	r24, 0x98	; 152
    37b4:	80 93 c9 00 	sts	0x00C9, r24
	//UCSR1A = (LineEncoding.BaudRateBPS == 57600) ? 0 : (1 << U2X1);
	UCSR1B = ((1 << RXCIE1) | (1 << TXEN1) | (1 << RXEN1));
    37b8:	5b 98       	cbi	0x0b, 3	; 11
    37ba:	13 c0       	rjmp	.+38     	; 0x37e2 <EVENT_USB_Device_ControlRequest+0x198>

	/* Release the TX line after the USART has been reconfigured */
	PORTD &= ~(1 << 3);
    37bc:	81 32       	cpi	r24, 0x21	; 33
    37be:	89 f4       	brne	.+34     	; 0x37e2 <EVENT_USB_Device_ControlRequest+0x198>

		}

		break;
	case CDC_REQ_SetControlLineState:
		if (USB_ControlRequest.bmRequestType == (REQDIR_HOSTTODEVICE | REQTYPE_CLASS | REQREC_INTERFACE))
    37c0:	80 91 e8 00 	lds	r24, 0x00E8
			 *  \note This is not applicable for non CONTROL type endpoints.
			 */
			static inline void Endpoint_ClearSETUP(void) ATTR_ALWAYS_INLINE;
			static inline void Endpoint_ClearSETUP(void)
			{
				UEINTX &= ~(1 << RXSTPI);
    37c4:	87 7f       	andi	r24, 0xF7	; 247
    37c6:	80 93 e8 00 	sts	0x00E8, r24
    37ca:	39 d1       	rcall	.+626    	; 0x3a3e <Endpoint_ClearStatusStage>
    37cc:	80 91 95 01 	lds	r24, 0x0195
		{
			Endpoint_ClearSETUP();
			Endpoint_ClearStatusStage();
    37d0:	81 11       	cpse	r24, r1

			// check DTR state and reset the MCU
			if (!CDCActive && (USB_ControlRequest.wValue & CDC_CONTROL_LINE_OUT_DTR))
    37d2:	06 c0       	rjmp	.+12     	; 0x37e0 <EVENT_USB_Device_ControlRequest+0x196>
    37d4:	80 91 e0 01 	lds	r24, 0x01E0
    37d8:	80 ff       	sbrs	r24, 0
    37da:	02 c0       	rjmp	.+4      	; 0x37e0 <EVENT_USB_Device_ControlRequest+0x196>
    37dc:	5f 98       	cbi	0x0b, 7	; 11
    37de:	01 c0       	rjmp	.+2      	; 0x37e2 <EVENT_USB_Device_ControlRequest+0x198>
    37e0:	5f 9a       	sbi	0x0b, 7	; 11
				AVR_RESET_LINE_PORT &= ~AVR_RESET_LINE_MASK;
    37e2:	cf 91       	pop	r28
    37e4:	08 95       	ret

000037e6 <__vector_23>:
			else
				AVR_RESET_LINE_PORT |= AVR_RESET_LINE_MASK;
    37e6:	1f 92       	push	r1
		}

		break;
	}
}
    37e8:	0f 92       	push	r0
    37ea:	0f b6       	in	r0, 0x3f	; 63
    37ec:	0f 92       	push	r0
    37ee:	11 24       	eor	r1, r1
    37f0:	8f 93       	push	r24
    37f2:	9f 93       	push	r25
    37f4:	ef 93       	push	r30
    37f6:	ff 93       	push	r31
*  for later transmission to the host.
*/
ISR(USART1_RX_vect, ISR_BLOCK)
{
	// read the newest byte from the UART, important to clear interrupt flag!
	uint8_t ReceivedByte = UDR1;
    37f8:	90 91 ce 00 	lds	r25, 0x00CE

	// only save the new byte if USB device is ready and buffer is not full
	if (!CDCActive && (USB_DeviceState == DEVICE_STATE_Configured) && (BufferCount <= BUFFER_SIZE)){
    37fc:	80 91 95 01 	lds	r24, 0x0195
    3800:	81 11       	cpse	r24, r1
    3802:	17 c0       	rjmp	.+46     	; 0x3832 <__vector_23+0x4c>
    3804:	8e b3       	in	r24, 0x1e	; 30
    3806:	84 30       	cpi	r24, 0x04	; 4
    3808:	a1 f4       	brne	.+40     	; 0x3832 <__vector_23+0x4c>
    380a:	80 91 94 01 	lds	r24, 0x0194
    380e:	81 34       	cpi	r24, 0x41	; 65
    3810:	80 f4       	brcc	.+32     	; 0x3832 <__vector_23+0x4c>
		// save new byte
		USARTtoUSB_Buffer_Data[BufferEnd++] = ReceivedByte;
    3812:	80 91 db 01 	lds	r24, 0x01DB
    3816:	e8 2f       	mov	r30, r24
    3818:	f0 e0       	ldi	r31, 0x00	; 0
    381a:	e9 56       	subi	r30, 0x69	; 105
    381c:	fe 4f       	sbci	r31, 0xFE	; 254
    381e:	90 83       	st	Z, r25
    3820:	8f 5f       	subi	r24, 0xFF	; 255

		// increase the buffer position and wrap around if needed
		BufferEnd %= BUFFER_SIZE;
    3822:	8f 73       	andi	r24, 0x3F	; 63
    3824:	80 93 db 01 	sts	0x01DB, r24

		// increase buffer count
		BufferCount++;
    3828:	80 91 94 01 	lds	r24, 0x0194
    382c:	8f 5f       	subi	r24, 0xFF	; 255
    382e:	80 93 94 01 	sts	0x0194, r24
	}
}
    3832:	ff 91       	pop	r31
    3834:	ef 91       	pop	r30
    3836:	9f 91       	pop	r25
    3838:	8f 91       	pop	r24
    383a:	0f 90       	pop	r0
    383c:	0f be       	out	0x3f, r0	; 63
    383e:	0f 90       	pop	r0
    3840:	1f 90       	pop	r1
    3842:	18 95       	reti

00003844 <CALLBACK_USB_GetDescriptor>:
 */
uint16_t CALLBACK_USB_GetDescriptor(const uint16_t wValue,
                                    const uint8_t wIndex,
                                    const void** const DescriptorAddress)
{
	const uint8_t  DescriptorType   = (wValue >> 8);
    3844:	29 2f       	mov	r18, r25
    3846:	30 e0       	ldi	r19, 0x00	; 0
			break;
	}

	*DescriptorAddress = Address;
	return Size;
}
    3848:	33 27       	eor	r19, r19
	const uint8_t  DescriptorNumber = (wValue & 0xFF);

	const void* Address = NULL;
	uint16_t    Size    = NO_DESCRIPTOR;

	switch (DescriptorType)
    384a:	22 30       	cpi	r18, 0x02	; 2
    384c:	31 05       	cpc	r19, r1
    384e:	39 f0       	breq	.+14     	; 0x385e <CALLBACK_USB_GetDescriptor+0x1a>
    3850:	23 30       	cpi	r18, 0x03	; 3
    3852:	31 05       	cpc	r19, r1
    3854:	49 f0       	breq	.+18     	; 0x3868 <CALLBACK_USB_GetDescriptor+0x24>
    3856:	21 30       	cpi	r18, 0x01	; 1
    3858:	31 05       	cpc	r19, r1
    385a:	89 f0       	breq	.+34     	; 0x387e <CALLBACK_USB_GetDescriptor+0x3a>
    385c:	0b c0       	rjmp	.+22     	; 0x3874 <CALLBACK_USB_GetDescriptor+0x30>
			Address = &DeviceDescriptor;
			Size    = sizeof(USB_Descriptor_Device_t);
			break;
		case DTYPE_Configuration:
			Address = &ConfigurationDescriptor;
			Size    = sizeof(USB_Descriptor_Configuration_t);
    385e:	2e e3       	ldi	r18, 0x3E	; 62
    3860:	30 e0       	ldi	r19, 0x00	; 0
		case DTYPE_Device:
			Address = &DeviceDescriptor;
			Size    = sizeof(USB_Descriptor_Device_t);
			break;
		case DTYPE_Configuration:
			Address = &ConfigurationDescriptor;
    3862:	8c e3       	ldi	r24, 0x3C	; 60
    3864:	91 e0       	ldi	r25, 0x01	; 1
			Size    = sizeof(USB_Descriptor_Configuration_t);
			break;
    3866:	1e c0       	rjmp	.+60     	; 0x38a4 <CALLBACK_USB_GetDescriptor+0x60>
		case DTYPE_String:
			if (DescriptorNumber == STRING_ID_Language)
    3868:	88 23       	and	r24, r24
    386a:	71 f0       	breq	.+28     	; 0x3888 <CALLBACK_USB_GetDescriptor+0x44>
			{
				Address = &LanguageString;
				Size    = LanguageString.Header.Size;
			}
			else if (DescriptorNumber == STRING_ID_Manufacturer)
    386c:	81 30       	cpi	r24, 0x01	; 1
    386e:	89 f0       	breq	.+34     	; 0x3892 <CALLBACK_USB_GetDescriptor+0x4e>
			{
				Address = &ManufacturerString;
				Size    = ManufacturerString.Header.Size;
			}
			else if (DescriptorNumber == STRING_ID_Product)
    3870:	82 30       	cpi	r24, 0x02	; 2
    3872:	a1 f0       	breq	.+40     	; 0x389c <CALLBACK_USB_GetDescriptor+0x58>
{
	const uint8_t  DescriptorType   = (wValue >> 8);
	const uint8_t  DescriptorNumber = (wValue & 0xFF);

	const void* Address = NULL;
	uint16_t    Size    = NO_DESCRIPTOR;
    3874:	20 e0       	ldi	r18, 0x00	; 0
    3876:	30 e0       	ldi	r19, 0x00	; 0
                                    const void** const DescriptorAddress)
{
	const uint8_t  DescriptorType   = (wValue >> 8);
	const uint8_t  DescriptorNumber = (wValue & 0xFF);

	const void* Address = NULL;
    3878:	80 e0       	ldi	r24, 0x00	; 0
    387a:	90 e0       	ldi	r25, 0x00	; 0
    387c:	13 c0       	rjmp	.+38     	; 0x38a4 <CALLBACK_USB_GetDescriptor+0x60>

	switch (DescriptorType)
	{
		case DTYPE_Device:
			Address = &DeviceDescriptor;
			Size    = sizeof(USB_Descriptor_Device_t);
    387e:	22 e1       	ldi	r18, 0x12	; 18
    3880:	30 e0       	ldi	r19, 0x00	; 0
	uint16_t    Size    = NO_DESCRIPTOR;

	switch (DescriptorType)
	{
		case DTYPE_Device:
			Address = &DeviceDescriptor;
    3882:	8a e7       	ldi	r24, 0x7A	; 122
    3884:	91 e0       	ldi	r25, 0x01	; 1
    3886:	0e c0       	rjmp	.+28     	; 0x38a4 <CALLBACK_USB_GetDescriptor+0x60>
			break;
		case DTYPE_String:
			if (DescriptorNumber == STRING_ID_Language)
			{
				Address = &LanguageString;
				Size    = LanguageString.Header.Size;
    3888:	24 e0       	ldi	r18, 0x04	; 4
    388a:	30 e0       	ldi	r19, 0x00	; 0
			Size    = sizeof(USB_Descriptor_Configuration_t);
			break;
		case DTYPE_String:
			if (DescriptorNumber == STRING_ID_Language)
			{
				Address = &LanguageString;
    388c:	88 e3       	ldi	r24, 0x38	; 56
    388e:	91 e0       	ldi	r25, 0x01	; 1
    3890:	09 c0       	rjmp	.+18     	; 0x38a4 <CALLBACK_USB_GetDescriptor+0x60>
				Size    = LanguageString.Header.Size;
			}
			else if (DescriptorNumber == STRING_ID_Manufacturer)
			{
				Address = &ManufacturerString;
				Size    = ManufacturerString.Header.Size;
    3892:	22 e1       	ldi	r18, 0x12	; 18
    3894:	30 e0       	ldi	r19, 0x00	; 0
				Address = &LanguageString;
				Size    = LanguageString.Header.Size;
			}
			else if (DescriptorNumber == STRING_ID_Manufacturer)
			{
				Address = &ManufacturerString;
    3896:	84 e2       	ldi	r24, 0x24	; 36
    3898:	91 e0       	ldi	r25, 0x01	; 1
    389a:	04 c0       	rjmp	.+8      	; 0x38a4 <CALLBACK_USB_GetDescriptor+0x60>
				Size    = ManufacturerString.Header.Size;
			}
			else if (DescriptorNumber == STRING_ID_Product)
			{
				Address = &ProductString;
				Size    = ProductString.Header.Size;
    389c:	28 e1       	ldi	r18, 0x18	; 24
    389e:	30 e0       	ldi	r19, 0x00	; 0
				Address = &ManufacturerString;
				Size    = ManufacturerString.Header.Size;
			}
			else if (DescriptorNumber == STRING_ID_Product)
			{
				Address = &ProductString;
    38a0:	8a e0       	ldi	r24, 0x0A	; 10
    38a2:	91 e0       	ldi	r25, 0x01	; 1
			}

			break;
	}

	*DescriptorAddress = Address;
    38a4:	fa 01       	movw	r30, r20
    38a6:	91 83       	std	Z+1, r25	; 0x01
    38a8:	80 83       	st	Z, r24
	return Size;
}
    38aa:	c9 01       	movw	r24, r18
    38ac:	08 95       	ret

000038ae <BootloaderAPI_ErasePage>:

#include "BootloaderAPI.h"

void BootloaderAPI_ErasePage(const uint32_t Address)
{
	boot_page_erase_safe(Address);
    38ae:	07 b6       	in	r0, 0x37	; 55
    38b0:	00 fc       	sbrc	r0, 0
    38b2:	fd cf       	rjmp	.-6      	; 0x38ae <BootloaderAPI_ErasePage>
    38b4:	f9 99       	sbic	0x1f, 1	; 31
    38b6:	fe cf       	rjmp	.-4      	; 0x38b4 <BootloaderAPI_ErasePage+0x6>
    38b8:	23 e0       	ldi	r18, 0x03	; 3
    38ba:	fb 01       	movw	r30, r22
    38bc:	20 93 57 00 	sts	0x0057, r18
    38c0:	e8 95       	spm
	boot_spm_busy_wait();
    38c2:	07 b6       	in	r0, 0x37	; 55
    38c4:	00 fc       	sbrc	r0, 0
    38c6:	fd cf       	rjmp	.-6      	; 0x38c2 <BootloaderAPI_ErasePage+0x14>
	boot_rww_enable();
    38c8:	81 e1       	ldi	r24, 0x11	; 17
    38ca:	80 93 57 00 	sts	0x0057, r24
    38ce:	e8 95       	spm
    38d0:	08 95       	ret

000038d2 <BootloaderAPI_WritePage>:
}

void BootloaderAPI_WritePage(const uint32_t Address)
{
	boot_page_write_safe(Address);
    38d2:	07 b6       	in	r0, 0x37	; 55
    38d4:	00 fc       	sbrc	r0, 0
    38d6:	fd cf       	rjmp	.-6      	; 0x38d2 <BootloaderAPI_WritePage>
    38d8:	f9 99       	sbic	0x1f, 1	; 31
    38da:	fe cf       	rjmp	.-4      	; 0x38d8 <BootloaderAPI_WritePage+0x6>
    38dc:	25 e0       	ldi	r18, 0x05	; 5
    38de:	fb 01       	movw	r30, r22
    38e0:	20 93 57 00 	sts	0x0057, r18
    38e4:	e8 95       	spm
	boot_spm_busy_wait();
    38e6:	07 b6       	in	r0, 0x37	; 55
    38e8:	00 fc       	sbrc	r0, 0
    38ea:	fd cf       	rjmp	.-6      	; 0x38e6 <BootloaderAPI_WritePage+0x14>
	boot_rww_enable();
    38ec:	81 e1       	ldi	r24, 0x11	; 17
    38ee:	80 93 57 00 	sts	0x0057, r24
    38f2:	e8 95       	spm
    38f4:	08 95       	ret

000038f6 <BootloaderAPI_FillWord>:
}

void BootloaderAPI_FillWord(const uint32_t Address, const uint16_t Word)
{
	boot_page_fill_safe(Address, Word);
    38f6:	07 b6       	in	r0, 0x37	; 55
    38f8:	00 fc       	sbrc	r0, 0
    38fa:	fd cf       	rjmp	.-6      	; 0x38f6 <BootloaderAPI_FillWord>
    38fc:	f9 99       	sbic	0x1f, 1	; 31
    38fe:	fe cf       	rjmp	.-4      	; 0x38fc <BootloaderAPI_FillWord+0x6>
    3900:	21 e0       	ldi	r18, 0x01	; 1
    3902:	fb 01       	movw	r30, r22
    3904:	0a 01       	movw	r0, r20
    3906:	20 93 57 00 	sts	0x0057, r18
    390a:	e8 95       	spm
    390c:	11 24       	eor	r1, r1
    390e:	08 95       	ret

00003910 <BootloaderAPI_ReadSignature>:
}

uint8_t BootloaderAPI_ReadSignature(const uint16_t Address)
{
	return boot_signature_byte_get(Address);
    3910:	21 e2       	ldi	r18, 0x21	; 33
    3912:	fc 01       	movw	r30, r24
    3914:	20 93 57 00 	sts	0x0057, r18
    3918:	84 91       	lpm	r24, Z+
}
    391a:	08 95       	ret

0000391c <BootloaderAPI_ReadFuse>:

uint8_t BootloaderAPI_ReadFuse(const uint16_t Address)
{
	return boot_lock_fuse_bits_get(Address);
    391c:	29 e0       	ldi	r18, 0x09	; 9
    391e:	fc 01       	movw	r30, r24
    3920:	20 93 57 00 	sts	0x0057, r18
    3924:	84 91       	lpm	r24, Z+
}
    3926:	08 95       	ret

00003928 <BootloaderAPI_ReadLock>:

uint8_t BootloaderAPI_ReadLock(void)
{
	return boot_lock_fuse_bits_get(GET_LOCK_BITS);
    3928:	e1 e0       	ldi	r30, 0x01	; 1
    392a:	f0 e0       	ldi	r31, 0x00	; 0
    392c:	89 e0       	ldi	r24, 0x09	; 9
    392e:	80 93 57 00 	sts	0x0057, r24
    3932:	84 91       	lpm	r24, Z+
}
    3934:	08 95       	ret

00003936 <BootloaderAPI_WriteLock>:

void BootloaderAPI_WriteLock(const uint8_t LockBits)
{
	boot_lock_bits_set_safe(LockBits);
    3936:	07 b6       	in	r0, 0x37	; 55
    3938:	00 fc       	sbrc	r0, 0
    393a:	fd cf       	rjmp	.-6      	; 0x3936 <BootloaderAPI_WriteLock>
    393c:	f9 99       	sbic	0x1f, 1	; 31
    393e:	fe cf       	rjmp	.-4      	; 0x393c <BootloaderAPI_WriteLock+0x6>
    3940:	80 95       	com	r24
    3942:	99 e0       	ldi	r25, 0x09	; 9
    3944:	e1 e0       	ldi	r30, 0x01	; 1
    3946:	f0 e0       	ldi	r31, 0x00	; 0
    3948:	08 2e       	mov	r0, r24
    394a:	90 93 57 00 	sts	0x0057, r25
    394e:	e8 95       	spm
    3950:	08 95       	ret

00003952 <Endpoint_Write_Control_Stream_LE>:
                            uint16_t Length)
{
	uint8_t* DataStream     = ((uint8_t*)Buffer + TEMPLATE_BUFFER_OFFSET(Length));
	bool     LastPacketFull = false;

	if (Length > USB_ControlRequest.wLength)
    3952:	20 91 e4 01 	lds	r18, 0x01E4
    3956:	30 91 e5 01 	lds	r19, 0x01E5
    395a:	26 17       	cp	r18, r22
    395c:	37 07       	cpc	r19, r23
    395e:	48 f0       	brcs	.+18     	; 0x3972 <Endpoint_Write_Control_Stream_LE+0x20>
	  Length = USB_ControlRequest.wLength;
	else if (!(Length))
    3960:	61 15       	cp	r22, r1
    3962:	71 05       	cpc	r23, r1
    3964:	39 f4       	brne	.+14     	; 0x3974 <Endpoint_Write_Control_Stream_LE+0x22>
			 */
			static inline void Endpoint_ClearIN(void) ATTR_ALWAYS_INLINE;
			static inline void Endpoint_ClearIN(void)
			{
				#if !defined(CONTROL_ONLY_DEVICE)
					UEINTX &= ~((1 << TXINI) | (1 << FIFOCON));
    3966:	20 91 e8 00 	lds	r18, 0x00E8
    396a:	2e 77       	andi	r18, 0x7E	; 126
    396c:	20 93 e8 00 	sts	0x00E8, r18
    3970:	01 c0       	rjmp	.+2      	; 0x3974 <Endpoint_Write_Control_Stream_LE+0x22>
                            uint16_t Length)
{
	uint8_t* DataStream     = ((uint8_t*)Buffer + TEMPLATE_BUFFER_OFFSET(Length));
	bool     LastPacketFull = false;

	if (Length > USB_ControlRequest.wLength)
    3972:	b9 01       	movw	r22, r18

		if (Endpoint_IsINReady())
		{
			uint16_t BytesInEndpoint = Endpoint_BytesInEndpoint();

			while (Length && (BytesInEndpoint < USB_Device_ControlEndpointSize))
    3974:	9c 01       	movw	r18, r24
    3976:	80 e0       	ldi	r24, 0x00	; 0
    3978:	33 c0       	rjmp	.+102    	; 0x39e0 <Endpoint_Write_Control_Stream_LE+0x8e>
	else if (!(Length))
	  Endpoint_ClearIN();

	while (Length || LastPacketFull)
	{
		uint8_t USB_DeviceState_LCL = USB_DeviceState;
    397a:	9e b3       	in	r25, 0x1e	; 30

		if (USB_DeviceState_LCL == DEVICE_STATE_Unattached)
    397c:	99 23       	and	r25, r25
    397e:	09 f4       	brne	.+2      	; 0x3982 <Endpoint_Write_Control_Stream_LE+0x30>
    3980:	44 c0       	rjmp	.+136    	; 0x3a0a <Endpoint_Write_Control_Stream_LE+0xb8>
		  return ENDPOINT_RWCSTREAM_DeviceDisconnected;
		else if (USB_DeviceState_LCL == DEVICE_STATE_Suspended)
    3982:	95 30       	cpi	r25, 0x05	; 5
    3984:	09 f4       	brne	.+2      	; 0x3988 <Endpoint_Write_Control_Stream_LE+0x36>
    3986:	43 c0       	rjmp	.+134    	; 0x3a0e <Endpoint_Write_Control_Stream_LE+0xbc>
			 *  \return Boolean \c true if the selected endpoint has received a SETUP packet, \c false otherwise.
			 */
			static inline bool Endpoint_IsSETUPReceived(void) ATTR_WARN_UNUSED_RESULT ATTR_ALWAYS_INLINE;
			static inline bool Endpoint_IsSETUPReceived(void)
			{
				return ((UEINTX & (1 << RXSTPI)) ? true : false);
    3988:	90 91 e8 00 	lds	r25, 0x00E8
		  return ENDPOINT_RWCSTREAM_BusSuspended;
		else if (Endpoint_IsSETUPReceived())
    398c:	93 fd       	sbrc	r25, 3
    398e:	41 c0       	rjmp	.+130    	; 0x3a12 <Endpoint_Write_Control_Stream_LE+0xc0>
			 *  \return Boolean \c true if current endpoint is has received an OUT packet, \c false otherwise.
			 */
			static inline bool Endpoint_IsOUTReceived(void) ATTR_WARN_UNUSED_RESULT ATTR_ALWAYS_INLINE;
			static inline bool Endpoint_IsOUTReceived(void)
			{
				return ((UEINTX & (1 << RXOUTI)) ? true : false);
    3990:	90 91 e8 00 	lds	r25, 0x00E8
		  return ENDPOINT_RWCSTREAM_HostAborted;
		else if (Endpoint_IsOUTReceived())
    3994:	92 fd       	sbrc	r25, 2
    3996:	33 c0       	rjmp	.+102    	; 0x39fe <Endpoint_Write_Control_Stream_LE+0xac>
			 *  \return Boolean \c true if the current endpoint is ready for an IN packet, \c false otherwise.
			 */
			static inline bool Endpoint_IsINReady(void) ATTR_WARN_UNUSED_RESULT ATTR_ALWAYS_INLINE;
			static inline bool Endpoint_IsINReady(void)
			{
				return ((UEINTX & (1 << TXINI)) ? true : false);
    3998:	90 91 e8 00 	lds	r25, 0x00E8
		  break;

		if (Endpoint_IsINReady())
    399c:	90 ff       	sbrs	r25, 0
    399e:	20 c0       	rjmp	.+64     	; 0x39e0 <Endpoint_Write_Control_Stream_LE+0x8e>
				#if (defined(USB_SERIES_6_AVR) || defined(USB_SERIES_7_AVR))
					return UEBCX;
				#elif defined(USB_SERIES_4_AVR)
					return (((uint16_t)UEBCHX << 8) | UEBCLX);
				#elif defined(USB_SERIES_2_AVR)
					return UEBCLX;
    39a0:	80 91 f2 00 	lds	r24, 0x00F2
    39a4:	90 e0       	ldi	r25, 0x00	; 0
		{
			uint16_t BytesInEndpoint = Endpoint_BytesInEndpoint();

			while (Length && (BytesInEndpoint < USB_Device_ControlEndpointSize))
    39a6:	f9 01       	movw	r30, r18
  this software.
*/

#if defined(TEMPLATE_FUNC_NAME)

uint8_t TEMPLATE_FUNC_NAME (const void* const Buffer,
    39a8:	82 1b       	sub	r24, r18
    39aa:	93 0b       	sbc	r25, r19

		if (Endpoint_IsINReady())
		{
			uint16_t BytesInEndpoint = Endpoint_BytesInEndpoint();

			while (Length && (BytesInEndpoint < USB_Device_ControlEndpointSize))
    39ac:	05 c0       	rjmp	.+10     	; 0x39b8 <Endpoint_Write_Control_Stream_LE+0x66>
			{
				TEMPLATE_TRANSFER_BYTE(DataStream);
    39ae:	21 91       	ld	r18, Z+
			 *  \param[in] Data  Data to write into the the currently selected endpoint's FIFO buffer.
			 */
			static inline void Endpoint_Write_8(const uint8_t Data) ATTR_ALWAYS_INLINE;
			static inline void Endpoint_Write_8(const uint8_t Data)
			{
				UEDATX = Data;
    39b0:	20 93 f1 00 	sts	0x00F1, r18
				TEMPLATE_BUFFER_MOVE(DataStream, 1);
				Length--;
    39b4:	61 50       	subi	r22, 0x01	; 1
    39b6:	71 09       	sbc	r23, r1
  this software.
*/

#if defined(TEMPLATE_FUNC_NAME)

uint8_t TEMPLATE_FUNC_NAME (const void* const Buffer,
    39b8:	9f 01       	movw	r18, r30
    39ba:	28 0f       	add	r18, r24
    39bc:	39 1f       	adc	r19, r25

		if (Endpoint_IsINReady())
		{
			uint16_t BytesInEndpoint = Endpoint_BytesInEndpoint();

			while (Length && (BytesInEndpoint < USB_Device_ControlEndpointSize))
    39be:	61 15       	cp	r22, r1
    39c0:	71 05       	cpc	r23, r1
    39c2:	19 f0       	breq	.+6      	; 0x39ca <Endpoint_Write_Control_Stream_LE+0x78>
    39c4:	28 30       	cpi	r18, 0x08	; 8
    39c6:	31 05       	cpc	r19, r1
    39c8:	90 f3       	brcs	.-28     	; 0x39ae <Endpoint_Write_Control_Stream_LE+0x5c>
				TEMPLATE_BUFFER_MOVE(DataStream, 1);
				Length--;
				BytesInEndpoint++;
			}

			LastPacketFull = (BytesInEndpoint == USB_Device_ControlEndpointSize);
    39ca:	81 e0       	ldi	r24, 0x01	; 1
    39cc:	28 30       	cpi	r18, 0x08	; 8
    39ce:	31 05       	cpc	r19, r1
    39d0:	09 f0       	breq	.+2      	; 0x39d4 <Endpoint_Write_Control_Stream_LE+0x82>
    39d2:	80 e0       	ldi	r24, 0x00	; 0
			 */
			static inline void Endpoint_ClearIN(void) ATTR_ALWAYS_INLINE;
			static inline void Endpoint_ClearIN(void)
			{
				#if !defined(CONTROL_ONLY_DEVICE)
					UEINTX &= ~((1 << TXINI) | (1 << FIFOCON));
    39d4:	90 91 e8 00 	lds	r25, 0x00E8
    39d8:	9e 77       	andi	r25, 0x7E	; 126
    39da:	90 93 e8 00 	sts	0x00E8, r25
    39de:	9f 01       	movw	r18, r30
	if (Length > USB_ControlRequest.wLength)
	  Length = USB_ControlRequest.wLength;
	else if (!(Length))
	  Endpoint_ClearIN();

	while (Length || LastPacketFull)
    39e0:	61 15       	cp	r22, r1
    39e2:	71 05       	cpc	r23, r1
    39e4:	51 f6       	brne	.-108    	; 0x397a <Endpoint_Write_Control_Stream_LE+0x28>
    39e6:	81 11       	cpse	r24, r1
    39e8:	c8 cf       	rjmp	.-112    	; 0x397a <Endpoint_Write_Control_Stream_LE+0x28>
    39ea:	09 c0       	rjmp	.+18     	; 0x39fe <Endpoint_Write_Control_Stream_LE+0xac>
		}
	}

	while (!(Endpoint_IsOUTReceived()))
	{
		uint8_t USB_DeviceState_LCL = USB_DeviceState;
    39ec:	8e b3       	in	r24, 0x1e	; 30

		if (USB_DeviceState_LCL == DEVICE_STATE_Unattached)
    39ee:	88 23       	and	r24, r24
    39f0:	61 f0       	breq	.+24     	; 0x3a0a <Endpoint_Write_Control_Stream_LE+0xb8>
		  return ENDPOINT_RWCSTREAM_DeviceDisconnected;
		else if (USB_DeviceState_LCL == DEVICE_STATE_Suspended)
    39f2:	85 30       	cpi	r24, 0x05	; 5
    39f4:	61 f0       	breq	.+24     	; 0x3a0e <Endpoint_Write_Control_Stream_LE+0xbc>
			 *  \return Boolean \c true if the selected endpoint has received a SETUP packet, \c false otherwise.
			 */
			static inline bool Endpoint_IsSETUPReceived(void) ATTR_WARN_UNUSED_RESULT ATTR_ALWAYS_INLINE;
			static inline bool Endpoint_IsSETUPReceived(void)
			{
				return ((UEINTX & (1 << RXSTPI)) ? true : false);
    39f6:	80 91 e8 00 	lds	r24, 0x00E8
		  return ENDPOINT_RWCSTREAM_BusSuspended;
		else if (Endpoint_IsSETUPReceived())
    39fa:	83 fd       	sbrc	r24, 3
    39fc:	0a c0       	rjmp	.+20     	; 0x3a12 <Endpoint_Write_Control_Stream_LE+0xc0>
			 *  \return Boolean \c true if current endpoint is has received an OUT packet, \c false otherwise.
			 */
			static inline bool Endpoint_IsOUTReceived(void) ATTR_WARN_UNUSED_RESULT ATTR_ALWAYS_INLINE;
			static inline bool Endpoint_IsOUTReceived(void)
			{
				return ((UEINTX & (1 << RXOUTI)) ? true : false);
    39fe:	80 91 e8 00 	lds	r24, 0x00E8
			LastPacketFull = (BytesInEndpoint == USB_Device_ControlEndpointSize);
			Endpoint_ClearIN();
		}
	}

	while (!(Endpoint_IsOUTReceived()))
    3a02:	82 ff       	sbrs	r24, 2
    3a04:	f3 cf       	rjmp	.-26     	; 0x39ec <Endpoint_Write_Control_Stream_LE+0x9a>
		  return ENDPOINT_RWCSTREAM_BusSuspended;
		else if (Endpoint_IsSETUPReceived())
		  return ENDPOINT_RWCSTREAM_HostAborted;
	}

	return ENDPOINT_RWCSTREAM_NoError;
    3a06:	80 e0       	ldi	r24, 0x00	; 0
    3a08:	08 95       	ret
	while (Length || LastPacketFull)
	{
		uint8_t USB_DeviceState_LCL = USB_DeviceState;

		if (USB_DeviceState_LCL == DEVICE_STATE_Unattached)
		  return ENDPOINT_RWCSTREAM_DeviceDisconnected;
    3a0a:	82 e0       	ldi	r24, 0x02	; 2
    3a0c:	08 95       	ret
		else if (USB_DeviceState_LCL == DEVICE_STATE_Suspended)
		  return ENDPOINT_RWCSTREAM_BusSuspended;
    3a0e:	83 e0       	ldi	r24, 0x03	; 3
    3a10:	08 95       	ret
		else if (Endpoint_IsSETUPReceived())
		  return ENDPOINT_RWCSTREAM_HostAborted;
    3a12:	81 e0       	ldi	r24, 0x01	; 1
		else if (Endpoint_IsSETUPReceived())
		  return ENDPOINT_RWCSTREAM_HostAborted;
	}

	return ENDPOINT_RWCSTREAM_NoError;
}
    3a14:	08 95       	ret

00003a16 <Endpoint_ConfigureEndpoint_Prv>:
			 */
			static inline void Endpoint_SelectEndpoint(const uint8_t Address) ATTR_ALWAYS_INLINE;
			static inline void Endpoint_SelectEndpoint(const uint8_t Address)
			{
				#if !defined(CONTROL_ONLY_DEVICE)
					UENUM = (Address & ENDPOINT_EPNUM_MASK);
    3a16:	8f 70       	andi	r24, 0x0F	; 15
    3a18:	80 93 e9 00 	sts	0x00E9, r24
			 *  \note Endpoints must first be configured properly via \ref Endpoint_ConfigureEndpoint().
			 */
			static inline void Endpoint_EnableEndpoint(void) ATTR_ALWAYS_INLINE;
			static inline void Endpoint_EnableEndpoint(void)
			{
				UECONX |= (1 << EPEN);
    3a1c:	eb ee       	ldi	r30, 0xEB	; 235
    3a1e:	f0 e0       	ldi	r31, 0x00	; 0
    3a20:	80 81       	ld	r24, Z
    3a22:	81 60       	ori	r24, 0x01	; 1
    3a24:	80 83       	st	Z, r24
{
#if defined(CONTROL_ONLY_DEVICE) || defined(ORDERED_EP_CONFIG)
	Endpoint_SelectEndpoint(Number);
	Endpoint_EnableEndpoint();

	UECFG1X = 0;
    3a26:	ed ee       	ldi	r30, 0xED	; 237
    3a28:	f0 e0       	ldi	r31, 0x00	; 0
    3a2a:	10 82       	st	Z, r1
	UECFG0X = UECFG0XData;
    3a2c:	60 93 ec 00 	sts	0x00EC, r22
	UECFG1X = UECFG1XData;
    3a30:	40 83       	st	Z, r20
			 *  \return Boolean \c true if the currently selected endpoint has been configured, \c false otherwise.
			 */
			static inline bool Endpoint_IsConfigured(void) ATTR_WARN_UNUSED_RESULT ATTR_ALWAYS_INLINE;
			static inline bool Endpoint_IsConfigured(void)
			{
				return ((UESTA0X & (1 << CFGOK)) ? true : false);
    3a32:	80 91 ee 00 	lds	r24, 0x00EE
	}

	Endpoint_SelectEndpoint(Number);
	return true;
#endif
}
    3a36:	88 1f       	adc	r24, r24
    3a38:	88 27       	eor	r24, r24
    3a3a:	88 1f       	adc	r24, r24
    3a3c:	08 95       	ret

00003a3e <Endpoint_ClearStatusStage>:
	}
}

void Endpoint_ClearStatusStage(void)
{
	if (USB_ControlRequest.bmRequestType & REQDIR_DEVICETOHOST)
    3a3e:	80 91 de 01 	lds	r24, 0x01DE
    3a42:	87 fd       	sbrc	r24, 7
    3a44:	05 c0       	rjmp	.+10     	; 0x3a50 <Endpoint_ClearStatusStage+0x12>
			 *  \return Boolean \c true if the current endpoint is ready for an IN packet, \c false otherwise.
			 */
			static inline bool Endpoint_IsINReady(void) ATTR_WARN_UNUSED_RESULT ATTR_ALWAYS_INLINE;
			static inline bool Endpoint_IsINReady(void)
			{
				return ((UEINTX & (1 << TXINI)) ? true : false);
    3a46:	80 91 e8 00 	lds	r24, 0x00E8

		Endpoint_ClearOUT();
	}
	else
	{
		while (!(Endpoint_IsINReady()))
    3a4a:	80 ff       	sbrs	r24, 0
    3a4c:	0d c0       	rjmp	.+26     	; 0x3a68 <Endpoint_ClearStatusStage+0x2a>
    3a4e:	10 c0       	rjmp	.+32     	; 0x3a70 <Endpoint_ClearStatusStage+0x32>
			 *  \return Boolean \c true if current endpoint is has received an OUT packet, \c false otherwise.
			 */
			static inline bool Endpoint_IsOUTReceived(void) ATTR_WARN_UNUSED_RESULT ATTR_ALWAYS_INLINE;
			static inline bool Endpoint_IsOUTReceived(void)
			{
				return ((UEINTX & (1 << RXOUTI)) ? true : false);
    3a50:	80 91 e8 00 	lds	r24, 0x00E8

void Endpoint_ClearStatusStage(void)
{
	if (USB_ControlRequest.bmRequestType & REQDIR_DEVICETOHOST)
	{
		while (!(Endpoint_IsOUTReceived()))
    3a54:	82 fd       	sbrc	r24, 2
    3a56:	04 c0       	rjmp	.+8      	; 0x3a60 <Endpoint_ClearStatusStage+0x22>
		{
			if (USB_DeviceState == DEVICE_STATE_Unattached)
    3a58:	8e b3       	in	r24, 0x1e	; 30
    3a5a:	81 11       	cpse	r24, r1
    3a5c:	f9 cf       	rjmp	.-14     	; 0x3a50 <Endpoint_ClearStatusStage+0x12>
    3a5e:	08 95       	ret
			 */
			static inline void Endpoint_ClearOUT(void) ATTR_ALWAYS_INLINE;
			static inline void Endpoint_ClearOUT(void)
			{
				#if !defined(CONTROL_ONLY_DEVICE)
					UEINTX &= ~((1 << RXOUTI) | (1 << FIFOCON));
    3a60:	80 91 e8 00 	lds	r24, 0x00E8
    3a64:	8b 77       	andi	r24, 0x7B	; 123
    3a66:	07 c0       	rjmp	.+14     	; 0x3a76 <Endpoint_ClearStatusStage+0x38>
	}
	else
	{
		while (!(Endpoint_IsINReady()))
		{
			if (USB_DeviceState == DEVICE_STATE_Unattached)
    3a68:	8e b3       	in	r24, 0x1e	; 30
    3a6a:	81 11       	cpse	r24, r1
    3a6c:	ec cf       	rjmp	.-40     	; 0x3a46 <Endpoint_ClearStatusStage+0x8>
    3a6e:	08 95       	ret
			 */
			static inline void Endpoint_ClearIN(void) ATTR_ALWAYS_INLINE;
			static inline void Endpoint_ClearIN(void)
			{
				#if !defined(CONTROL_ONLY_DEVICE)
					UEINTX &= ~((1 << TXINI) | (1 << FIFOCON));
    3a70:	80 91 e8 00 	lds	r24, 0x00E8
    3a74:	8e 77       	andi	r24, 0x7E	; 126
    3a76:	80 93 e8 00 	sts	0x00E8, r24
    3a7a:	08 95       	ret

00003a7c <USB_ResetInterface>:
{
	#if defined(USB_CAN_BE_BOTH)
	bool UIDModeSelectEnabled = ((UHWCON & (1 << UIDE)) != 0);
	#endif

	USB_INT_DisableAllInterrupts();
    3a7c:	3c d0       	rcall	.+120    	; 0x3af6 <USB_INT_DisableAllInterrupts>
    3a7e:	3e d0       	rcall	.+124    	; 0x3afc <USB_INT_ClearAllInterrupts>
	USB_INT_ClearAllInterrupts();
    3a80:	80 91 d8 00 	lds	r24, 0x00D8
			}

			static inline void USB_Controller_Reset(void) ATTR_ALWAYS_INLINE;
			static inline void USB_Controller_Reset(void)
			{
				USBCON &= ~(1 << USBE);
    3a84:	8f 77       	andi	r24, 0x7F	; 127
    3a86:	80 93 d8 00 	sts	0x00D8, r24
    3a8a:	80 91 d8 00 	lds	r24, 0x00D8
				USBCON |=  (1 << USBE);
    3a8e:	80 68       	ori	r24, 0x80	; 128
    3a90:	80 93 d8 00 	sts	0x00D8, r24
    3a94:	80 91 d8 00 	lds	r24, 0x00D8
			}

			static inline void USB_CLK_Unfreeze(void) ATTR_ALWAYS_INLINE;
			static inline void USB_CLK_Unfreeze(void)
			{
				USBCON &= ~(1 << FRZCLK);
    3a98:	8f 7d       	andi	r24, 0xDF	; 223
    3a9a:	80 93 d8 00 	sts	0x00D8, r24
    3a9e:	84 e0       	ldi	r24, 0x04	; 4
    3aa0:	89 bd       	out	0x29, r24	; 41

		/* Inline Functions: */
			static inline void USB_PLL_On(void) ATTR_ALWAYS_INLINE;
			static inline void USB_PLL_On(void)
			{
				PLLCSR = USB_PLL_PSC;
    3aa2:	86 e0       	ldi	r24, 0x06	; 6
    3aa4:	89 bd       	out	0x29, r24	; 41
				PLLCSR = (USB_PLL_PSC | (1 << PLLE));
    3aa6:	09 b4       	in	r0, 0x29	; 41
    3aa8:	00 fe       	sbrs	r0, 0

		if (!(USB_Options & USB_OPT_MANUAL_PLL))
		{
			#if defined(USB_SERIES_2_AVR)
			USB_PLL_On();
			while (!(USB_PLL_IsReady()));
    3aaa:	fd cf       	rjmp	.-6      	; 0x3aa6 <USB_ResetInterface+0x2a>
    3aac:	1e ba       	out	0x1e, r1	; 30
    3aae:	10 92 dc 01 	sts	0x01DC, r1

#if defined(USB_CAN_BE_DEVICE)
static void USB_Init_Device(void)
{
	USB_DeviceState                 = DEVICE_STATE_Unattached;
	USB_Device_ConfigurationNumber  = 0;
    3ab2:	42 e0       	ldi	r20, 0x02	; 2
    3ab4:	60 e0       	ldi	r22, 0x00	; 0
				uint8_t Number = (Address & ENDPOINT_EPNUM_MASK);

				if (Number >= ENDPOINT_TOTAL_ENDPOINTS)
				  return false;

				return Endpoint_ConfigureEndpoint_Prv(Number,
    3ab6:	80 e0       	ldi	r24, 0x00	; 0
    3ab8:	ae df       	rcall	.-164    	; 0x3a16 <Endpoint_ConfigureEndpoint_Prv>
    3aba:	80 91 e1 00 	lds	r24, 0x00E1
    3abe:	8e 7f       	andi	r24, 0xFE	; 254
					#if defined(USB_CAN_BE_DEVICE)
					case USB_INT_WAKEUPI:
						UDINT  &= ~(1 << WAKEUPI);
						break;
					case USB_INT_SUSPI:
						UDINT  &= ~(1 << SUSPI);
    3ac0:	80 93 e1 00 	sts	0x00E1, r24
    3ac4:	80 91 e2 00 	lds	r24, 0x00E2
    3ac8:	81 60       	ori	r24, 0x01	; 1
					#if defined(USB_CAN_BE_DEVICE)
					case USB_INT_WAKEUPI:
						UDIEN  |= (1 << WAKEUPE);
						break;
					case USB_INT_SUSPI:
						UDIEN  |= (1 << SUSPE);
    3aca:	80 93 e2 00 	sts	0x00E2, r24
    3ace:	80 91 e2 00 	lds	r24, 0x00E2
    3ad2:	88 60       	ori	r24, 0x08	; 8
						break;
					case USB_INT_EORSTI:
						UDIEN  |= (1 << EORSTE);
    3ad4:	80 93 e2 00 	sts	0x00E2, r24
    3ad8:	80 91 e0 00 	lds	r24, 0x00E0
    3adc:	8e 7f       	andi	r24, 0xFE	; 254
			 *  register and despite the datasheet making no mention of its requirement in host mode.
			 */
			static inline void USB_Attach(void) ATTR_ALWAYS_INLINE;
			static inline void USB_Attach(void)
			{
				UDCON  &= ~(1 << DETACH);
    3ade:	80 93 e0 00 	sts	0x00E0, r24
    3ae2:	08 95       	ret

00003ae4 <USB_Init>:

               #if !defined(USE_STATIC_OPTIONS)
               const uint8_t Options
               #endif
               )
{
    3ae4:	e3 e6       	ldi	r30, 0x63	; 99
    3ae6:	f0 e0       	ldi	r31, 0x00	; 0
    3ae8:	80 81       	ld	r24, Z
    3aea:	8e 7f       	andi	r24, 0xFE	; 254
    3aec:	80 83       	st	Z, r24
		UHWCON &= ~(1 << UIDE);
		USB_CurrentMode = Mode;
	}
	#endif

	USB_IsInitialized = true;
    3aee:	81 e0       	ldi	r24, 0x01	; 1
    3af0:	80 93 dd 01 	sts	0x01DD, r24

	USB_ResetInterface();
    3af4:	c3 cf       	rjmp	.-122    	; 0x3a7c <USB_ResetInterface>

00003af6 <USB_INT_DisableAllInterrupts>:
	#if defined(USB_CAN_BE_HOST)
	UHIEN   = 0;
	#endif

	#if defined(USB_CAN_BE_DEVICE)
	UDIEN   = 0;
    3af6:	10 92 e2 00 	sts	0x00E2, r1
    3afa:	08 95       	ret

00003afc <USB_INT_ClearAllInterrupts>:
	#if defined(USB_CAN_BE_HOST)
	UHINT  = 0;
	#endif

	#if defined(USB_CAN_BE_DEVICE)
	UDINT  = 0;
    3afc:	10 92 e1 00 	sts	0x00E1, r1
    3b00:	08 95       	ret

00003b02 <__vector_11>:
	#endif
}

ISR(USB_GEN_vect, ISR_BLOCK)
{
    3b02:	1f 92       	push	r1
    3b04:	0f 92       	push	r0
    3b06:	0f b6       	in	r0, 0x3f	; 63
    3b08:	0f 92       	push	r0
    3b0a:	11 24       	eor	r1, r1
    3b0c:	2f 93       	push	r18
    3b0e:	3f 93       	push	r19
    3b10:	4f 93       	push	r20
    3b12:	5f 93       	push	r21
    3b14:	6f 93       	push	r22
    3b16:	7f 93       	push	r23
    3b18:	8f 93       	push	r24
    3b1a:	9f 93       	push	r25
    3b1c:	af 93       	push	r26
    3b1e:	bf 93       	push	r27
    3b20:	ef 93       	push	r30
    3b22:	ff 93       	push	r31
					#endif
					#if defined(USB_CAN_BE_DEVICE)
					case USB_INT_WAKEUPI:
						return (UDINT  & (1 << WAKEUPI));
					case USB_INT_SUSPI:
						return (UDINT  & (1 << SUSPI));
    3b24:	80 91 e1 00 	lds	r24, 0x00E1
			EVENT_USB_Device_Disconnect();
		}
	}
	#endif

	if (USB_INT_HasOccurred(USB_INT_SUSPI) && USB_INT_IsEnabled(USB_INT_SUSPI))
    3b28:	80 ff       	sbrs	r24, 0
    3b2a:	16 c0       	rjmp	.+44     	; 0x3b58 <__vector_11+0x56>
					#endif
					#if defined(USB_CAN_BE_DEVICE)
					case USB_INT_WAKEUPI:
						return (UDIEN  & (1 << WAKEUPE));
					case USB_INT_SUSPI:
						return (UDIEN  & (1 << SUSPE));
    3b2c:	80 91 e2 00 	lds	r24, 0x00E2
    3b30:	80 ff       	sbrs	r24, 0
    3b32:	12 c0       	rjmp	.+36     	; 0x3b58 <__vector_11+0x56>
					#if defined(USB_CAN_BE_DEVICE)
					case USB_INT_WAKEUPI:
						UDIEN  &= ~(1 << WAKEUPE);
						break;
					case USB_INT_SUSPI:
						UDIEN  &= ~(1 << SUSPE);
    3b34:	80 91 e2 00 	lds	r24, 0x00E2
    3b38:	8e 7f       	andi	r24, 0xFE	; 254
    3b3a:	80 93 e2 00 	sts	0x00E2, r24
						USBCON |= (1 << IDTE);
						break;
					#endif
					#if defined(USB_CAN_BE_DEVICE)
					case USB_INT_WAKEUPI:
						UDIEN  |= (1 << WAKEUPE);
    3b3e:	80 91 e2 00 	lds	r24, 0x00E2
    3b42:	80 61       	ori	r24, 0x10	; 16
    3b44:	80 93 e2 00 	sts	0x00E2, r24
			#endif

			static inline void USB_CLK_Freeze(void) ATTR_ALWAYS_INLINE;
			static inline void USB_CLK_Freeze(void)
			{
				USBCON |=  (1 << FRZCLK);
    3b48:	80 91 d8 00 	lds	r24, 0x00D8
    3b4c:	80 62       	ori	r24, 0x20	; 32
    3b4e:	80 93 d8 00 	sts	0x00D8, r24
			}

			static inline void USB_PLL_Off(void) ATTR_ALWAYS_INLINE;
			static inline void USB_PLL_Off(void)
			{
				PLLCSR = 0;
    3b52:	19 bc       	out	0x29, r1	; 41

		if (!(USB_Options & USB_OPT_MANUAL_PLL))
		  USB_PLL_Off();

		#if defined(USB_SERIES_2_AVR) && !defined(NO_LIMITED_CONTROLLER_CONNECT)
		USB_DeviceState = DEVICE_STATE_Unattached;
    3b54:	1e ba       	out	0x1e, r1	; 30
		EVENT_USB_Device_Disconnect();
    3b56:	79 d1       	rcall	.+754    	; 0x3e4a <USB_Event_Stub>
    3b58:	80 91 e1 00 	lds	r24, 0x00E1
					case USB_INT_IDTI:
						return (USBINT & (1 << IDTI));
					#endif
					#if defined(USB_CAN_BE_DEVICE)
					case USB_INT_WAKEUPI:
						return (UDINT  & (1 << WAKEUPI));
    3b5c:	84 ff       	sbrs	r24, 4
		USB_DeviceState = DEVICE_STATE_Suspended;
		EVENT_USB_Device_Suspend();
		#endif
	}

	if (USB_INT_HasOccurred(USB_INT_WAKEUPI) && USB_INT_IsEnabled(USB_INT_WAKEUPI))
    3b5e:	2e c0       	rjmp	.+92     	; 0x3bbc <__vector_11+0xba>
    3b60:	80 91 e2 00 	lds	r24, 0x00E2
					case USB_INT_IDTI:
						return (USBCON & (1 << IDTE));
					#endif
					#if defined(USB_CAN_BE_DEVICE)
					case USB_INT_WAKEUPI:
						return (UDIEN  & (1 << WAKEUPE));
    3b64:	84 ff       	sbrs	r24, 4
    3b66:	2a c0       	rjmp	.+84     	; 0x3bbc <__vector_11+0xba>
    3b68:	84 e0       	ldi	r24, 0x04	; 4

		/* Inline Functions: */
			static inline void USB_PLL_On(void) ATTR_ALWAYS_INLINE;
			static inline void USB_PLL_On(void)
			{
				PLLCSR = USB_PLL_PSC;
    3b6a:	89 bd       	out	0x29, r24	; 41
    3b6c:	86 e0       	ldi	r24, 0x06	; 6
				PLLCSR = (USB_PLL_PSC | (1 << PLLE));
    3b6e:	89 bd       	out	0x29, r24	; 41
    3b70:	09 b4       	in	r0, 0x29	; 41
	{
		if (!(USB_Options & USB_OPT_MANUAL_PLL))
		{
			USB_PLL_On();
			while (!(USB_PLL_IsReady()));
    3b72:	00 fe       	sbrs	r0, 0
    3b74:	fd cf       	rjmp	.-6      	; 0x3b70 <__vector_11+0x6e>
    3b76:	80 91 d8 00 	lds	r24, 0x00D8
			}

			static inline void USB_CLK_Unfreeze(void) ATTR_ALWAYS_INLINE;
			static inline void USB_CLK_Unfreeze(void)
			{
				USBCON &= ~(1 << FRZCLK);
    3b7a:	8f 7d       	andi	r24, 0xDF	; 223
    3b7c:	80 93 d8 00 	sts	0x00D8, r24
    3b80:	80 91 e1 00 	lds	r24, 0x00E1
						USBINT &= ~(1 << IDTI);
						break;
					#endif
					#if defined(USB_CAN_BE_DEVICE)
					case USB_INT_WAKEUPI:
						UDINT  &= ~(1 << WAKEUPI);
    3b84:	8f 7e       	andi	r24, 0xEF	; 239
    3b86:	80 93 e1 00 	sts	0x00E1, r24
    3b8a:	80 91 e2 00 	lds	r24, 0x00E2
						USBCON &= ~(1 << IDTE);
						break;
					#endif
					#if defined(USB_CAN_BE_DEVICE)
					case USB_INT_WAKEUPI:
						UDIEN  &= ~(1 << WAKEUPE);
    3b8e:	8f 7e       	andi	r24, 0xEF	; 239
    3b90:	80 93 e2 00 	sts	0x00E2, r24
    3b94:	80 91 e2 00 	lds	r24, 0x00E2
					#if defined(USB_CAN_BE_DEVICE)
					case USB_INT_WAKEUPI:
						UDIEN  |= (1 << WAKEUPE);
						break;
					case USB_INT_SUSPI:
						UDIEN  |= (1 << SUSPE);
    3b98:	81 60       	ori	r24, 0x01	; 1
    3b9a:	80 93 e2 00 	sts	0x00E2, r24
    3b9e:	80 91 dc 01 	lds	r24, 0x01DC
		USB_INT_Clear(USB_INT_WAKEUPI);

		USB_INT_Disable(USB_INT_WAKEUPI);
		USB_INT_Enable(USB_INT_SUSPI);

		if (USB_Device_ConfigurationNumber)
    3ba2:	88 23       	and	r24, r24
    3ba4:	11 f0       	breq	.+4      	; 0x3baa <__vector_11+0xa8>
    3ba6:	84 e0       	ldi	r24, 0x04	; 4
		  USB_DeviceState = DEVICE_STATE_Configured;
    3ba8:	07 c0       	rjmp	.+14     	; 0x3bb8 <__vector_11+0xb6>
    3baa:	80 91 e3 00 	lds	r24, 0x00E3
			}

			static inline bool USB_Device_IsAddressSet(void) ATTR_ALWAYS_INLINE ATTR_WARN_UNUSED_RESULT;
			static inline bool USB_Device_IsAddressSet(void)
			{
				return (UDADDR & (1 << ADDEN));
    3bae:	87 ff       	sbrs	r24, 7
		else
		  USB_DeviceState = (USB_Device_IsAddressSet()) ? DEVICE_STATE_Addressed : DEVICE_STATE_Powered;
    3bb0:	02 c0       	rjmp	.+4      	; 0x3bb6 <__vector_11+0xb4>
    3bb2:	83 e0       	ldi	r24, 0x03	; 3
    3bb4:	01 c0       	rjmp	.+2      	; 0x3bb8 <__vector_11+0xb6>
    3bb6:	81 e0       	ldi	r24, 0x01	; 1
    3bb8:	8e bb       	out	0x1e, r24	; 30
    3bba:	47 d1       	rcall	.+654    	; 0x3e4a <USB_Event_Stub>

		#if defined(USB_SERIES_2_AVR) && !defined(NO_LIMITED_CONTROLLER_CONNECT)
		EVENT_USB_Device_Connect();
    3bbc:	80 91 e1 00 	lds	r24, 0x00E1
					case USB_INT_WAKEUPI:
						return (UDINT  & (1 << WAKEUPI));
					case USB_INT_SUSPI:
						return (UDINT  & (1 << SUSPI));
					case USB_INT_EORSTI:
						return (UDINT  & (1 << EORSTI));
    3bc0:	83 ff       	sbrs	r24, 3
    3bc2:	21 c0       	rjmp	.+66     	; 0x3c06 <__vector_11+0x104>
		#else
		EVENT_USB_Device_WakeUp();
		#endif
	}

	if (USB_INT_HasOccurred(USB_INT_EORSTI) && USB_INT_IsEnabled(USB_INT_EORSTI))
    3bc4:	80 91 e2 00 	lds	r24, 0x00E2
					case USB_INT_WAKEUPI:
						return (UDIEN  & (1 << WAKEUPE));
					case USB_INT_SUSPI:
						return (UDIEN  & (1 << SUSPE));
					case USB_INT_EORSTI:
						return (UDIEN  & (1 << EORSTE));
    3bc8:	83 ff       	sbrs	r24, 3
    3bca:	1d c0       	rjmp	.+58     	; 0x3c06 <__vector_11+0x104>
    3bcc:	80 91 e1 00 	lds	r24, 0x00E1
						break;
					case USB_INT_SUSPI:
						UDINT  &= ~(1 << SUSPI);
						break;
					case USB_INT_EORSTI:
						UDINT  &= ~(1 << EORSTI);
    3bd0:	87 7f       	andi	r24, 0xF7	; 247
    3bd2:	80 93 e1 00 	sts	0x00E1, r24
    3bd6:	82 e0       	ldi	r24, 0x02	; 2
    3bd8:	8e bb       	out	0x1e, r24	; 30
	{
		USB_INT_Clear(USB_INT_EORSTI);

		USB_DeviceState                = DEVICE_STATE_Default;
    3bda:	10 92 dc 01 	sts	0x01DC, r1
		USB_Device_ConfigurationNumber = 0;
    3bde:	80 91 e1 00 	lds	r24, 0x00E1
					#if defined(USB_CAN_BE_DEVICE)
					case USB_INT_WAKEUPI:
						UDINT  &= ~(1 << WAKEUPI);
						break;
					case USB_INT_SUSPI:
						UDINT  &= ~(1 << SUSPI);
    3be2:	8e 7f       	andi	r24, 0xFE	; 254
    3be4:	80 93 e1 00 	sts	0x00E1, r24
    3be8:	80 91 e2 00 	lds	r24, 0x00E2
					#if defined(USB_CAN_BE_DEVICE)
					case USB_INT_WAKEUPI:
						UDIEN  &= ~(1 << WAKEUPE);
						break;
					case USB_INT_SUSPI:
						UDIEN  &= ~(1 << SUSPE);
    3bec:	8e 7f       	andi	r24, 0xFE	; 254
    3bee:	80 93 e2 00 	sts	0x00E2, r24
    3bf2:	80 91 e2 00 	lds	r24, 0x00E2
						USBCON |= (1 << IDTE);
						break;
					#endif
					#if defined(USB_CAN_BE_DEVICE)
					case USB_INT_WAKEUPI:
						UDIEN  |= (1 << WAKEUPE);
    3bf6:	80 61       	ori	r24, 0x10	; 16
    3bf8:	80 93 e2 00 	sts	0x00E2, r24
    3bfc:	42 e0       	ldi	r20, 0x02	; 2
    3bfe:	60 e0       	ldi	r22, 0x00	; 0
				uint8_t Number = (Address & ENDPOINT_EPNUM_MASK);

				if (Number >= ENDPOINT_TOTAL_ENDPOINTS)
				  return false;

				return Endpoint_ConfigureEndpoint_Prv(Number,
    3c00:	80 e0       	ldi	r24, 0x00	; 0
    3c02:	09 df       	rcall	.-494    	; 0x3a16 <Endpoint_ConfigureEndpoint_Prv>
    3c04:	22 d1       	rcall	.+580    	; 0x3e4a <USB_Event_Stub>
    3c06:	ff 91       	pop	r31
    3c08:	ef 91       	pop	r30

		#if defined(INTERRUPT_CONTROL_ENDPOINT)
		USB_INT_Enable(USB_INT_RXSTPI);
		#endif

		EVENT_USB_Device_Reset();
    3c0a:	bf 91       	pop	r27
    3c0c:	af 91       	pop	r26
		USB_ResetInterface();

		EVENT_USB_UIDChange();
	}
	#endif
}
    3c0e:	9f 91       	pop	r25
    3c10:	8f 91       	pop	r24
    3c12:	7f 91       	pop	r23
    3c14:	6f 91       	pop	r22
    3c16:	5f 91       	pop	r21
    3c18:	4f 91       	pop	r20
    3c1a:	3f 91       	pop	r19
    3c1c:	2f 91       	pop	r18
    3c1e:	0f 90       	pop	r0
    3c20:	0f be       	out	0x3f, r0	; 63
    3c22:	0f 90       	pop	r0
    3c24:	1f 90       	pop	r1
    3c26:	18 95       	reti

00003c28 <USB_Device_ProcessControlRequest>:
#if !defined(NO_DEVICE_REMOTE_WAKEUP)
bool    USB_Device_RemoteWakeupEnabled;
#endif

void USB_Device_ProcessControlRequest(void)
{
    3c28:	1f 93       	push	r17
    3c2a:	cf 93       	push	r28
    3c2c:	df 93       	push	r29
    3c2e:	00 d0       	rcall	.+0      	; 0x3c30 <USB_Device_ProcessControlRequest+0x8>
    3c30:	cd b7       	in	r28, 0x3d	; 61
    3c32:	de b7       	in	r29, 0x3e	; 62
	USB_ControlRequest.bRequest      = Endpoint_Read_8();
	USB_ControlRequest.wValue        = Endpoint_Read_16_LE();
	USB_ControlRequest.wIndex        = Endpoint_Read_16_LE();
	USB_ControlRequest.wLength       = Endpoint_Read_16_LE();
	#else
	uint8_t* RequestHeader = (uint8_t*)&USB_ControlRequest;
    3c34:	ee ed       	ldi	r30, 0xDE	; 222
    3c36:	f1 e0       	ldi	r31, 0x01	; 1
			 *  \return Next byte in the currently selected endpoint's FIFO buffer.
			 */
			static inline uint8_t Endpoint_Read_8(void) ATTR_WARN_UNUSED_RESULT ATTR_ALWAYS_INLINE;
			static inline uint8_t Endpoint_Read_8(void)
			{
				return UEDATX;
    3c38:	80 91 f1 00 	lds	r24, 0x00F1

	for (uint8_t RequestHeaderByte = 0; RequestHeaderByte < sizeof(USB_Request_Header_t); RequestHeaderByte++)
	  *(RequestHeader++) = Endpoint_Read_8();
    3c3c:	81 93       	st	Z+, r24
	USB_ControlRequest.wIndex        = Endpoint_Read_16_LE();
	USB_ControlRequest.wLength       = Endpoint_Read_16_LE();
	#else
	uint8_t* RequestHeader = (uint8_t*)&USB_ControlRequest;

	for (uint8_t RequestHeaderByte = 0; RequestHeaderByte < sizeof(USB_Request_Header_t); RequestHeaderByte++)
    3c3e:	81 e0       	ldi	r24, 0x01	; 1
    3c40:	e6 3e       	cpi	r30, 0xE6	; 230
    3c42:	f8 07       	cpc	r31, r24
    3c44:	c9 f7       	brne	.-14     	; 0x3c38 <USB_Device_ProcessControlRequest+0x10>
	  *(RequestHeader++) = Endpoint_Read_8();
	#endif

	EVENT_USB_Device_ControlRequest();
    3c46:	01 dd       	rcall	.-1534   	; 0x364a <EVENT_USB_Device_ControlRequest>
    3c48:	80 91 e8 00 	lds	r24, 0x00E8
			 *  \return Boolean \c true if the selected endpoint has received a SETUP packet, \c false otherwise.
			 */
			static inline bool Endpoint_IsSETUPReceived(void) ATTR_WARN_UNUSED_RESULT ATTR_ALWAYS_INLINE;
			static inline bool Endpoint_IsSETUPReceived(void)
			{
				return ((UEINTX & (1 << RXSTPI)) ? true : false);
    3c4c:	83 ff       	sbrs	r24, 3

	if (Endpoint_IsSETUPReceived())
    3c4e:	e9 c0       	rjmp	.+466    	; 0x3e22 <USB_Device_ProcessControlRequest+0x1fa>
    3c50:	80 91 de 01 	lds	r24, 0x01DE
	{
		uint8_t bmRequestType = USB_ControlRequest.bmRequestType;
    3c54:	90 91 df 01 	lds	r25, 0x01DF

		switch (USB_ControlRequest.bRequest)
    3c58:	95 30       	cpi	r25, 0x05	; 5
    3c5a:	09 f4       	brne	.+2      	; 0x3c5e <USB_Device_ProcessControlRequest+0x36>
    3c5c:	70 c0       	rjmp	.+224    	; 0x3d3e <USB_Device_ProcessControlRequest+0x116>
    3c5e:	38 f4       	brcc	.+14     	; 0x3c6e <USB_Device_ProcessControlRequest+0x46>
    3c60:	91 30       	cpi	r25, 0x01	; 1
    3c62:	79 f1       	breq	.+94     	; 0x3cc2 <USB_Device_ProcessControlRequest+0x9a>
    3c64:	70 f0       	brcs	.+28     	; 0x3c82 <USB_Device_ProcessControlRequest+0x5a>
    3c66:	93 30       	cpi	r25, 0x03	; 3
    3c68:	09 f0       	breq	.+2      	; 0x3c6c <USB_Device_ProcessControlRequest+0x44>
    3c6a:	db c0       	rjmp	.+438    	; 0x3e22 <USB_Device_ProcessControlRequest+0x1fa>
    3c6c:	2a c0       	rjmp	.+84     	; 0x3cc2 <USB_Device_ProcessControlRequest+0x9a>
    3c6e:	98 30       	cpi	r25, 0x08	; 8
    3c70:	09 f4       	brne	.+2      	; 0x3c74 <USB_Device_ProcessControlRequest+0x4c>
    3c72:	aa c0       	rjmp	.+340    	; 0x3dc8 <USB_Device_ProcessControlRequest+0x1a0>
    3c74:	99 30       	cpi	r25, 0x09	; 9
    3c76:	09 f4       	brne	.+2      	; 0x3c7a <USB_Device_ProcessControlRequest+0x52>
    3c78:	b9 c0       	rjmp	.+370    	; 0x3dec <USB_Device_ProcessControlRequest+0x1c4>
    3c7a:	96 30       	cpi	r25, 0x06	; 6
    3c7c:	09 f0       	breq	.+2      	; 0x3c80 <USB_Device_ProcessControlRequest+0x58>
    3c7e:	d1 c0       	rjmp	.+418    	; 0x3e22 <USB_Device_ProcessControlRequest+0x1fa>
    3c80:	83 c0       	rjmp	.+262    	; 0x3d88 <USB_Device_ProcessControlRequest+0x160>
    3c82:	80 38       	cpi	r24, 0x80	; 128
		{
			case REQ_GetStatus:
				if ((bmRequestType == (REQDIR_DEVICETOHOST | REQTYPE_STANDARD | REQREC_DEVICE)) ||
    3c84:	99 f0       	breq	.+38     	; 0x3cac <USB_Device_ProcessControlRequest+0x84>
    3c86:	82 38       	cpi	r24, 0x82	; 130
    3c88:	09 f0       	breq	.+2      	; 0x3c8c <USB_Device_ProcessControlRequest+0x64>
    3c8a:	cb c0       	rjmp	.+406    	; 0x3e22 <USB_Device_ProcessControlRequest+0x1fa>
    3c8c:	80 91 e2 01 	lds	r24, 0x01E2
			  CurrentStatus |= FEATURE_REMOTE_WAKEUP_ENABLED;
			#endif
			break;
		case (REQDIR_DEVICETOHOST | REQTYPE_STANDARD | REQREC_ENDPOINT):
			#if !defined(CONTROL_ONLY_DEVICE)
			Endpoint_SelectEndpoint((uint8_t)USB_ControlRequest.wIndex & ENDPOINT_EPNUM_MASK);
    3c90:	90 91 e3 01 	lds	r25, 0x01E3
    3c94:	8f 70       	andi	r24, 0x0F	; 15
    3c96:	99 27       	eor	r25, r25
    3c98:	80 93 e9 00 	sts	0x00E9, r24
			 */
			static inline void Endpoint_SelectEndpoint(const uint8_t Address) ATTR_ALWAYS_INLINE;
			static inline void Endpoint_SelectEndpoint(const uint8_t Address)
			{
				#if !defined(CONTROL_ONLY_DEVICE)
					UENUM = (Address & ENDPOINT_EPNUM_MASK);
    3c9c:	90 91 eb 00 	lds	r25, 0x00EB
			 *  \return Boolean \c true if the currently selected endpoint is stalled, \c false otherwise.
			 */
			static inline bool Endpoint_IsStalled(void) ATTR_WARN_UNUSED_RESULT ATTR_ALWAYS_INLINE;
			static inline bool Endpoint_IsStalled(void)
			{
				return ((UECONX & (1 << STALLRQ)) ? true : false);
    3ca0:	95 fb       	bst	r25, 5
    3ca2:	99 27       	eor	r25, r25
    3ca4:	90 f9       	bld	r25, 0
    3ca6:	10 92 e9 00 	sts	0x00E9, r1
			 */
			static inline void Endpoint_SelectEndpoint(const uint8_t Address) ATTR_ALWAYS_INLINE;
			static inline void Endpoint_SelectEndpoint(const uint8_t Address)
			{
				#if !defined(CONTROL_ONLY_DEVICE)
					UENUM = (Address & ENDPOINT_EPNUM_MASK);
    3caa:	01 c0       	rjmp	.+2      	; 0x3cae <USB_Device_ProcessControlRequest+0x86>
    3cac:	90 e0       	ldi	r25, 0x00	; 0
	Endpoint_ClearOUT();
}

static void USB_Device_GetStatus(void)
{
	uint8_t CurrentStatus = 0;
    3cae:	80 91 e8 00 	lds	r24, 0x00E8
			 *  \note This is not applicable for non CONTROL type endpoints.
			 */
			static inline void Endpoint_ClearSETUP(void) ATTR_ALWAYS_INLINE;
			static inline void Endpoint_ClearSETUP(void)
			{
				UEINTX &= ~(1 << RXSTPI);
    3cb2:	87 7f       	andi	r24, 0xF7	; 247
    3cb4:	80 93 e8 00 	sts	0x00E8, r24
    3cb8:	90 93 f1 00 	sts	0x00F1, r25
			 *  \param[in] Data  Data to write to the currently selected endpoint's FIFO buffer.
			 */
			static inline void Endpoint_Write_16_LE(const uint16_t Data) ATTR_ALWAYS_INLINE;
			static inline void Endpoint_Write_16_LE(const uint16_t Data)
			{
				UEDATX = (Data & 0xFF);
    3cbc:	10 92 f1 00 	sts	0x00F1, r1
				UEDATX = (Data >> 8);
    3cc0:	8e c0       	rjmp	.+284    	; 0x3dde <USB_Device_ProcessControlRequest+0x1b6>
    3cc2:	88 23       	and	r24, r24
				}

				break;
			case REQ_ClearFeature:
			case REQ_SetFeature:
				if ((bmRequestType == (REQDIR_HOSTTODEVICE | REQTYPE_STANDARD | REQREC_DEVICE)) ||
    3cc4:	19 f0       	breq	.+6      	; 0x3ccc <USB_Device_ProcessControlRequest+0xa4>
    3cc6:	82 30       	cpi	r24, 0x02	; 2
    3cc8:	09 f0       	breq	.+2      	; 0x3ccc <USB_Device_ProcessControlRequest+0xa4>
    3cca:	ab c0       	rjmp	.+342    	; 0x3e22 <USB_Device_ProcessControlRequest+0x1fa>
    3ccc:	8f 71       	andi	r24, 0x1F	; 31
	Endpoint_ClearStatusStage();
}

static void USB_Device_ClearSetFeature(void)
{
	switch (USB_ControlRequest.bmRequestType & CONTROL_REQTYPE_RECIPIENT)
    3cce:	82 30       	cpi	r24, 0x02	; 2
    3cd0:	09 f0       	breq	.+2      	; 0x3cd4 <USB_Device_ProcessControlRequest+0xac>
    3cd2:	a7 c0       	rjmp	.+334    	; 0x3e22 <USB_Device_ProcessControlRequest+0x1fa>
    3cd4:	80 91 e0 01 	lds	r24, 0x01E0

			break;
		#endif
		#if !defined(CONTROL_ONLY_DEVICE)
		case REQREC_ENDPOINT:
			if ((uint8_t)USB_ControlRequest.wValue == FEATURE_SEL_EndpointHalt)
    3cd8:	81 11       	cpse	r24, r1
    3cda:	2b c0       	rjmp	.+86     	; 0x3d32 <USB_Device_ProcessControlRequest+0x10a>
    3cdc:	80 91 e2 01 	lds	r24, 0x01E2
			{
				uint8_t EndpointIndex = ((uint8_t)USB_ControlRequest.wIndex & ENDPOINT_EPNUM_MASK);
    3ce0:	90 91 e3 01 	lds	r25, 0x01E3
    3ce4:	8f 70       	andi	r24, 0x0F	; 15
    3ce6:	99 27       	eor	r25, r25
    3ce8:	00 97       	sbiw	r24, 0x00	; 0

				if (EndpointIndex == ENDPOINT_CONTROLEP)
    3cea:	09 f4       	brne	.+2      	; 0x3cee <USB_Device_ProcessControlRequest+0xc6>
    3cec:	9a c0       	rjmp	.+308    	; 0x3e22 <USB_Device_ProcessControlRequest+0x1fa>
    3cee:	80 93 e9 00 	sts	0x00E9, r24
			 */
			static inline void Endpoint_SelectEndpoint(const uint8_t Address) ATTR_ALWAYS_INLINE;
			static inline void Endpoint_SelectEndpoint(const uint8_t Address)
			{
				#if !defined(CONTROL_ONLY_DEVICE)
					UENUM = (Address & ENDPOINT_EPNUM_MASK);
    3cf2:	20 91 eb 00 	lds	r18, 0x00EB
			 * \return Boolean \c true if the currently selected endpoint is enabled, \c false otherwise.
			 */
			static inline bool Endpoint_IsEnabled(void) ATTR_WARN_UNUSED_RESULT ATTR_ALWAYS_INLINE;
			static inline bool Endpoint_IsEnabled(void)
			{
				return ((UECONX & (1 << EPEN)) ? true : false);
    3cf6:	20 ff       	sbrs	r18, 0
				  return;

				Endpoint_SelectEndpoint(EndpointIndex);

				if (Endpoint_IsEnabled())
    3cf8:	1c c0       	rjmp	.+56     	; 0x3d32 <USB_Device_ProcessControlRequest+0x10a>
    3cfa:	20 91 df 01 	lds	r18, 0x01DF
				{
					if (USB_ControlRequest.bRequest == REQ_SetFeature)
    3cfe:	23 30       	cpi	r18, 0x03	; 3
    3d00:	21 f4       	brne	.+8      	; 0x3d0a <USB_Device_ProcessControlRequest+0xe2>
    3d02:	80 91 eb 00 	lds	r24, 0x00EB
			 *  \ingroup Group_EndpointPacketManagement_AVR8
			 */
			static inline void Endpoint_StallTransaction(void) ATTR_ALWAYS_INLINE;
			static inline void Endpoint_StallTransaction(void)
			{
				UECONX |= (1 << STALLRQ);
    3d06:	80 62       	ori	r24, 0x20	; 32
    3d08:	12 c0       	rjmp	.+36     	; 0x3d2e <USB_Device_ProcessControlRequest+0x106>
    3d0a:	90 91 eb 00 	lds	r25, 0x00EB
			 *  \ingroup Group_EndpointPacketManagement_AVR8
			 */
			static inline void Endpoint_ClearStall(void) ATTR_ALWAYS_INLINE;
			static inline void Endpoint_ClearStall(void)
			{
				UECONX |= (1 << STALLRQC);
    3d0e:	90 61       	ori	r25, 0x10	; 16
    3d10:	90 93 eb 00 	sts	0x00EB, r25
    3d14:	21 e0       	ldi	r18, 0x01	; 1
			 *  \param[in] Address  Endpoint address whose FIFO buffers are to be reset.
			 */
			static inline void Endpoint_ResetEndpoint(const uint8_t Address) ATTR_ALWAYS_INLINE;
			static inline void Endpoint_ResetEndpoint(const uint8_t Address)
			{
				UERST = (1 << (Address & ENDPOINT_EPNUM_MASK));
    3d16:	30 e0       	ldi	r19, 0x00	; 0
    3d18:	01 c0       	rjmp	.+2      	; 0x3d1c <USB_Device_ProcessControlRequest+0xf4>
    3d1a:	22 0f       	add	r18, r18
    3d1c:	8a 95       	dec	r24
    3d1e:	ea f7       	brpl	.-6      	; 0x3d1a <USB_Device_ProcessControlRequest+0xf2>
    3d20:	20 93 ea 00 	sts	0x00EA, r18
    3d24:	10 92 ea 00 	sts	0x00EA, r1
				UERST = 0;
    3d28:	80 91 eb 00 	lds	r24, 0x00EB

			/** Resets the data toggle of the currently selected endpoint. */
			static inline void Endpoint_ResetDataToggle(void) ATTR_ALWAYS_INLINE;
			static inline void Endpoint_ResetDataToggle(void)
			{
				UECONX |= (1 << RSTDT);
    3d2c:	88 60       	ori	r24, 0x08	; 8
    3d2e:	80 93 eb 00 	sts	0x00EB, r24
    3d32:	10 92 e9 00 	sts	0x00E9, r1
			 */
			static inline void Endpoint_SelectEndpoint(const uint8_t Address) ATTR_ALWAYS_INLINE;
			static inline void Endpoint_SelectEndpoint(const uint8_t Address)
			{
				#if !defined(CONTROL_ONLY_DEVICE)
					UENUM = (Address & ENDPOINT_EPNUM_MASK);
    3d36:	80 91 e8 00 	lds	r24, 0x00E8
			 *  \note This is not applicable for non CONTROL type endpoints.
			 */
			static inline void Endpoint_ClearSETUP(void) ATTR_ALWAYS_INLINE;
			static inline void Endpoint_ClearSETUP(void)
			{
				UEINTX &= ~(1 << RXSTPI);
    3d3a:	87 7f       	andi	r24, 0xF7	; 247
    3d3c:	53 c0       	rjmp	.+166    	; 0x3de4 <USB_Device_ProcessControlRequest+0x1bc>
    3d3e:	81 11       	cpse	r24, r1
					USB_Device_ClearSetFeature();
				}

				break;
			case REQ_SetAddress:
				if (bmRequestType == (REQDIR_HOSTTODEVICE | REQTYPE_STANDARD | REQREC_DEVICE))
    3d40:	70 c0       	rjmp	.+224    	; 0x3e22 <USB_Device_ProcessControlRequest+0x1fa>
    3d42:	80 91 e0 01 	lds	r24, 0x01E0
	}
}

static void USB_Device_SetAddress(void)
{
	uint8_t DeviceAddress = (USB_ControlRequest.wValue & 0x7F);
    3d46:	90 91 e1 01 	lds	r25, 0x01E1
    3d4a:	8f 77       	andi	r24, 0x7F	; 127
    3d4c:	99 27       	eor	r25, r25
    3d4e:	18 2f       	mov	r17, r24
    3d50:	90 91 e3 00 	lds	r25, 0x00E3
			#endif

			static inline void USB_Device_SetDeviceAddress(const uint8_t Address) ATTR_ALWAYS_INLINE;
			static inline void USB_Device_SetDeviceAddress(const uint8_t Address)
			{
				UDADDR = (UDADDR & (1 << ADDEN)) | (Address & 0x7F);
    3d54:	90 78       	andi	r25, 0x80	; 128
    3d56:	98 2b       	or	r25, r24
    3d58:	90 93 e3 00 	sts	0x00E3, r25
    3d5c:	80 91 e8 00 	lds	r24, 0x00E8
    3d60:	87 7f       	andi	r24, 0xF7	; 247
    3d62:	80 93 e8 00 	sts	0x00E8, r24
    3d66:	6b de       	rcall	.-810    	; 0x3a3e <Endpoint_ClearStatusStage>

	USB_Device_SetDeviceAddress(DeviceAddress);

	Endpoint_ClearSETUP();

	Endpoint_ClearStatusStage();
    3d68:	80 91 e8 00 	lds	r24, 0x00E8
			 *  \return Boolean \c true if the current endpoint is ready for an IN packet, \c false otherwise.
			 */
			static inline bool Endpoint_IsINReady(void) ATTR_WARN_UNUSED_RESULT ATTR_ALWAYS_INLINE;
			static inline bool Endpoint_IsINReady(void)
			{
				return ((UEINTX & (1 << TXINI)) ? true : false);
    3d6c:	80 ff       	sbrs	r24, 0
    3d6e:	fc cf       	rjmp	.-8      	; 0x3d68 <USB_Device_ProcessControlRequest+0x140>

	while (!(Endpoint_IsINReady()));
    3d70:	80 91 e3 00 	lds	r24, 0x00E3
			static inline void USB_Device_EnableDeviceAddress(const uint8_t Address) ATTR_ALWAYS_INLINE;
			static inline void USB_Device_EnableDeviceAddress(const uint8_t Address)
			{
				(void)Address;

				UDADDR |= (1 << ADDEN);
    3d74:	80 68       	ori	r24, 0x80	; 128
    3d76:	80 93 e3 00 	sts	0x00E3, r24
    3d7a:	11 23       	and	r17, r17
    3d7c:	11 f0       	breq	.+4      	; 0x3d82 <USB_Device_ProcessControlRequest+0x15a>

	USB_Device_EnableDeviceAddress(DeviceAddress);

	USB_DeviceState = (DeviceAddress) ? DEVICE_STATE_Addressed : DEVICE_STATE_Default;
    3d7e:	83 e0       	ldi	r24, 0x03	; 3
    3d80:	01 c0       	rjmp	.+2      	; 0x3d84 <USB_Device_ProcessControlRequest+0x15c>
    3d82:	82 e0       	ldi	r24, 0x02	; 2
    3d84:	8e bb       	out	0x1e, r24	; 30
    3d86:	4d c0       	rjmp	.+154    	; 0x3e22 <USB_Device_ProcessControlRequest+0x1fa>
    3d88:	80 58       	subi	r24, 0x80	; 128
    3d8a:	82 30       	cpi	r24, 0x02	; 2
				if (bmRequestType == (REQDIR_HOSTTODEVICE | REQTYPE_STANDARD | REQREC_DEVICE))
				  USB_Device_SetAddress();

				break;
			case REQ_GetDescriptor:
				if ((bmRequestType == (REQDIR_DEVICETOHOST | REQTYPE_STANDARD | REQREC_DEVICE)) ||
    3d8c:	08 f0       	brcs	.+2      	; 0x3d90 <USB_Device_ProcessControlRequest+0x168>
    3d8e:	49 c0       	rjmp	.+146    	; 0x3e22 <USB_Device_ProcessControlRequest+0x1fa>
    3d90:	ae 01       	movw	r20, r28
    3d92:	4f 5f       	subi	r20, 0xFF	; 255
		USB_Device_GetInternalSerialDescriptor();
		return;
	}
	#endif

	if ((DescriptorSize = CALLBACK_USB_GetDescriptor(USB_ControlRequest.wValue, USB_ControlRequest.wIndex,
    3d94:	5f 4f       	sbci	r21, 0xFF	; 255
    3d96:	60 91 e2 01 	lds	r22, 0x01E2
    3d9a:	80 91 e0 01 	lds	r24, 0x01E0
    3d9e:	90 91 e1 01 	lds	r25, 0x01E1
    3da2:	50 dd       	rcall	.-1376   	; 0x3844 <CALLBACK_USB_GetDescriptor>
    3da4:	00 97       	sbiw	r24, 0x00	; 0
    3da6:	09 f4       	brne	.+2      	; 0x3daa <USB_Device_ProcessControlRequest+0x182>
    3da8:	3c c0       	rjmp	.+120    	; 0x3e22 <USB_Device_ProcessControlRequest+0x1fa>
    3daa:	20 91 e8 00 	lds	r18, 0x00E8
    3dae:	27 7f       	andi	r18, 0xF7	; 247
			 *  \note This is not applicable for non CONTROL type endpoints.
			 */
			static inline void Endpoint_ClearSETUP(void) ATTR_ALWAYS_INLINE;
			static inline void Endpoint_ClearSETUP(void)
			{
				UEINTX &= ~(1 << RXSTPI);
    3db0:	20 93 e8 00 	sts	0x00E8, r18
    3db4:	bc 01       	movw	r22, r24
    3db6:	89 81       	ldd	r24, Y+1	; 0x01
    3db8:	9a 81       	ldd	r25, Y+2	; 0x02
	}

	Endpoint_ClearSETUP();

	#if defined(USE_RAM_DESCRIPTORS) || !defined(ARCH_HAS_MULTI_ADDRESS_SPACE)
	Endpoint_Write_Control_Stream_LE(DescriptorPointer, DescriptorSize);
    3dba:	cb dd       	rcall	.-1130   	; 0x3952 <Endpoint_Write_Control_Stream_LE>
    3dbc:	80 91 e8 00 	lds	r24, 0x00E8
    3dc0:	8b 77       	andi	r24, 0x7B	; 123
    3dc2:	80 93 e8 00 	sts	0x00E8, r24
			 */
			static inline void Endpoint_ClearOUT(void) ATTR_ALWAYS_INLINE;
			static inline void Endpoint_ClearOUT(void)
			{
				#if !defined(CONTROL_ONLY_DEVICE)
					UEINTX &= ~((1 << RXOUTI) | (1 << FIFOCON));
    3dc6:	2d c0       	rjmp	.+90     	; 0x3e22 <USB_Device_ProcessControlRequest+0x1fa>
    3dc8:	80 38       	cpi	r24, 0x80	; 128
    3dca:	59 f5       	brne	.+86     	; 0x3e22 <USB_Device_ProcessControlRequest+0x1fa>
    3dcc:	80 91 e8 00 	lds	r24, 0x00E8
					USB_Device_GetDescriptor();
				}

				break;
			case REQ_GetConfiguration:
				if (bmRequestType == (REQDIR_DEVICETOHOST | REQTYPE_STANDARD | REQREC_DEVICE))
    3dd0:	87 7f       	andi	r24, 0xF7	; 247
    3dd2:	80 93 e8 00 	sts	0x00E8, r24
			 *  \note This is not applicable for non CONTROL type endpoints.
			 */
			static inline void Endpoint_ClearSETUP(void) ATTR_ALWAYS_INLINE;
			static inline void Endpoint_ClearSETUP(void)
			{
				UEINTX &= ~(1 << RXSTPI);
    3dd6:	80 91 dc 01 	lds	r24, 0x01DC
    3dda:	80 93 f1 00 	sts	0x00F1, r24

static void USB_Device_GetConfiguration(void)
{
	Endpoint_ClearSETUP();

	Endpoint_Write_8(USB_Device_ConfigurationNumber);
    3dde:	80 91 e8 00 	lds	r24, 0x00E8
			 *  \param[in] Data  Data to write into the the currently selected endpoint's FIFO buffer.
			 */
			static inline void Endpoint_Write_8(const uint8_t Data) ATTR_ALWAYS_INLINE;
			static inline void Endpoint_Write_8(const uint8_t Data)
			{
				UEDATX = Data;
    3de2:	8e 77       	andi	r24, 0x7E	; 126
    3de4:	80 93 e8 00 	sts	0x00E8, r24
			 */
			static inline void Endpoint_ClearIN(void) ATTR_ALWAYS_INLINE;
			static inline void Endpoint_ClearIN(void)
			{
				#if !defined(CONTROL_ONLY_DEVICE)
					UEINTX &= ~((1 << TXINI) | (1 << FIFOCON));
    3de8:	2a de       	rcall	.-940    	; 0x3a3e <Endpoint_ClearStatusStage>
    3dea:	1b c0       	rjmp	.+54     	; 0x3e22 <USB_Device_ProcessControlRequest+0x1fa>
    3dec:	81 11       	cpse	r24, r1
    3dee:	19 c0       	rjmp	.+50     	; 0x3e22 <USB_Device_ProcessControlRequest+0x1fa>
	Endpoint_ClearIN();

	Endpoint_ClearStatusStage();
    3df0:	90 91 e0 01 	lds	r25, 0x01E0
    3df4:	92 30       	cpi	r25, 0x02	; 2
				if (bmRequestType == (REQDIR_DEVICETOHOST | REQTYPE_STANDARD | REQREC_DEVICE))
				  USB_Device_GetConfiguration();

				break;
			case REQ_SetConfiguration:
				if (bmRequestType == (REQDIR_HOSTTODEVICE | REQTYPE_STANDARD | REQREC_DEVICE))
    3df6:	a8 f4       	brcc	.+42     	; 0x3e22 <USB_Device_ProcessControlRequest+0x1fa>
    3df8:	80 91 e8 00 	lds	r24, 0x00E8
}

static void USB_Device_SetConfiguration(void)
{
	#if defined(FIXED_NUM_CONFIGURATIONS)
	if ((uint8_t)USB_ControlRequest.wValue > FIXED_NUM_CONFIGURATIONS)
    3dfc:	87 7f       	andi	r24, 0xF7	; 247
    3dfe:	80 93 e8 00 	sts	0x00E8, r24
			 *  \note This is not applicable for non CONTROL type endpoints.
			 */
			static inline void Endpoint_ClearSETUP(void) ATTR_ALWAYS_INLINE;
			static inline void Endpoint_ClearSETUP(void)
			{
				UEINTX &= ~(1 << RXSTPI);
    3e02:	90 93 dc 01 	sts	0x01DC, r25
    3e06:	1b de       	rcall	.-970    	; 0x3a3e <Endpoint_ClearStatusStage>
    3e08:	80 91 dc 01 	lds	r24, 0x01DC
	#endif
	#endif

	Endpoint_ClearSETUP();

	USB_Device_ConfigurationNumber = (uint8_t)USB_ControlRequest.wValue;
    3e0c:	81 11       	cpse	r24, r1
    3e0e:	04 c0       	rjmp	.+8      	; 0x3e18 <USB_Device_ProcessControlRequest+0x1f0>

	Endpoint_ClearStatusStage();
    3e10:	80 91 e3 00 	lds	r24, 0x00E3

	if (USB_Device_ConfigurationNumber)
    3e14:	87 ff       	sbrs	r24, 7
    3e16:	02 c0       	rjmp	.+4      	; 0x3e1c <USB_Device_ProcessControlRequest+0x1f4>
    3e18:	84 e0       	ldi	r24, 0x04	; 4
    3e1a:	01 c0       	rjmp	.+2      	; 0x3e1e <USB_Device_ProcessControlRequest+0x1f6>
			}

			static inline bool USB_Device_IsAddressSet(void) ATTR_ALWAYS_INLINE ATTR_WARN_UNUSED_RESULT;
			static inline bool USB_Device_IsAddressSet(void)
			{
				return (UDADDR & (1 << ADDEN));
    3e1c:	81 e0       	ldi	r24, 0x01	; 1
    3e1e:	8e bb       	out	0x1e, r24	; 30
	  USB_DeviceState = DEVICE_STATE_Configured;
	else
	  USB_DeviceState = (USB_Device_IsAddressSet()) ? DEVICE_STATE_Configured : DEVICE_STATE_Powered;
    3e20:	08 dc       	rcall	.-2032   	; 0x3632 <EVENT_USB_Device_ConfigurationChanged>
    3e22:	80 91 e8 00 	lds	r24, 0x00E8
    3e26:	83 ff       	sbrs	r24, 3
    3e28:	0a c0       	rjmp	.+20     	; 0x3e3e <USB_Device_ProcessControlRequest+0x216>
    3e2a:	80 91 e8 00 	lds	r24, 0x00E8

	EVENT_USB_Device_ConfigurationChanged();
    3e2e:	87 7f       	andi	r24, 0xF7	; 247
			 *  \return Boolean \c true if the selected endpoint has received a SETUP packet, \c false otherwise.
			 */
			static inline bool Endpoint_IsSETUPReceived(void) ATTR_WARN_UNUSED_RESULT ATTR_ALWAYS_INLINE;
			static inline bool Endpoint_IsSETUPReceived(void)
			{
				return ((UEINTX & (1 << RXSTPI)) ? true : false);
    3e30:	80 93 e8 00 	sts	0x00E8, r24
			default:
				break;
		}
	}

	if (Endpoint_IsSETUPReceived())
    3e34:	80 91 eb 00 	lds	r24, 0x00EB
			 *  \note This is not applicable for non CONTROL type endpoints.
			 */
			static inline void Endpoint_ClearSETUP(void) ATTR_ALWAYS_INLINE;
			static inline void Endpoint_ClearSETUP(void)
			{
				UEINTX &= ~(1 << RXSTPI);
    3e38:	80 62       	ori	r24, 0x20	; 32
    3e3a:	80 93 eb 00 	sts	0x00EB, r24
    3e3e:	0f 90       	pop	r0
    3e40:	0f 90       	pop	r0
			 *  \ingroup Group_EndpointPacketManagement_AVR8
			 */
			static inline void Endpoint_StallTransaction(void) ATTR_ALWAYS_INLINE;
			static inline void Endpoint_StallTransaction(void)
			{
				UECONX |= (1 << STALLRQ);
    3e42:	df 91       	pop	r29
    3e44:	cf 91       	pop	r28
    3e46:	1f 91       	pop	r17
    3e48:	08 95       	ret

00003e4a <USB_Event_Stub>:
#define  __INCLUDE_FROM_EVENTS_C
#define  __INCLUDE_FROM_USB_DRIVER
#include "Events.h"

void USB_Event_Stub(void)
{
    3e4a:	08 95       	ret

00003e4c <USB_USBTask>:
#if defined(USB_CAN_BE_DEVICE) && !defined(DEVICE_STATE_AS_GPIOR)
volatile uint8_t     USB_DeviceState;
#endif

void USB_USBTask(void)
{
    3e4c:	cf 93       	push	r28
}

#if defined(USB_CAN_BE_DEVICE)
static void USB_DeviceTask(void)
{
	if (USB_DeviceState == DEVICE_STATE_Unattached)
    3e4e:	8e b3       	in	r24, 0x1e	; 30
    3e50:	88 23       	and	r24, r24
    3e52:	a9 f0       	breq	.+42     	; 0x3e7e <USB_USBTask+0x32>
			 */
			static inline uint8_t Endpoint_GetCurrentEndpoint(void) ATTR_WARN_UNUSED_RESULT ATTR_ALWAYS_INLINE;
			static inline uint8_t Endpoint_GetCurrentEndpoint(void)
			{
				#if !defined(CONTROL_ONLY_DEVICE)
					return ((UENUM & ENDPOINT_EPNUM_MASK) | Endpoint_GetEndpointDirection());
    3e54:	80 91 e9 00 	lds	r24, 0x00E9
    3e58:	8f 70       	andi	r24, 0x0F	; 15
			 *  \return The currently selected endpoint's direction, as a \c ENDPOINT_DIR_* mask.
			 */
			static inline uint8_t Endpoint_GetEndpointDirection(void) ATTR_WARN_UNUSED_RESULT ATTR_ALWAYS_INLINE;
			static inline uint8_t Endpoint_GetEndpointDirection(void)
			{
				return (UECFG0X & (1 << EPDIR)) ? ENDPOINT_DIR_IN : ENDPOINT_DIR_OUT;
    3e5a:	90 91 ec 00 	lds	r25, 0x00EC
    3e5e:	90 ff       	sbrs	r25, 0
    3e60:	02 c0       	rjmp	.+4      	; 0x3e66 <USB_USBTask+0x1a>
    3e62:	90 e8       	ldi	r25, 0x80	; 128
    3e64:	01 c0       	rjmp	.+2      	; 0x3e68 <USB_USBTask+0x1c>
    3e66:	90 e0       	ldi	r25, 0x00	; 0
			 */
			static inline uint8_t Endpoint_GetCurrentEndpoint(void) ATTR_WARN_UNUSED_RESULT ATTR_ALWAYS_INLINE;
			static inline uint8_t Endpoint_GetCurrentEndpoint(void)
			{
				#if !defined(CONTROL_ONLY_DEVICE)
					return ((UENUM & ENDPOINT_EPNUM_MASK) | Endpoint_GetEndpointDirection());
    3e68:	c9 2f       	mov	r28, r25
    3e6a:	c8 2b       	or	r28, r24
			 */
			static inline void Endpoint_SelectEndpoint(const uint8_t Address) ATTR_ALWAYS_INLINE;
			static inline void Endpoint_SelectEndpoint(const uint8_t Address)
			{
				#if !defined(CONTROL_ONLY_DEVICE)
					UENUM = (Address & ENDPOINT_EPNUM_MASK);
    3e6c:	10 92 e9 00 	sts	0x00E9, r1
			 *  \return Boolean \c true if the selected endpoint has received a SETUP packet, \c false otherwise.
			 */
			static inline bool Endpoint_IsSETUPReceived(void) ATTR_WARN_UNUSED_RESULT ATTR_ALWAYS_INLINE;
			static inline bool Endpoint_IsSETUPReceived(void)
			{
				return ((UEINTX & (1 << RXSTPI)) ? true : false);
    3e70:	80 91 e8 00 	lds	r24, 0x00E8

	uint8_t PrevEndpoint = Endpoint_GetCurrentEndpoint();

	Endpoint_SelectEndpoint(ENDPOINT_CONTROLEP);

	if (Endpoint_IsSETUPReceived())
    3e74:	83 fd       	sbrc	r24, 3
	  USB_Device_ProcessControlRequest();
    3e76:	d8 de       	rcall	.-592    	; 0x3c28 <USB_Device_ProcessControlRequest>
    3e78:	cf 70       	andi	r28, 0x0F	; 15
			 */
			static inline void Endpoint_SelectEndpoint(const uint8_t Address) ATTR_ALWAYS_INLINE;
			static inline void Endpoint_SelectEndpoint(const uint8_t Address)
			{
				#if !defined(CONTROL_ONLY_DEVICE)
					UENUM = (Address & ENDPOINT_EPNUM_MASK);
    3e7a:	c0 93 e9 00 	sts	0x00E9, r28
    3e7e:	cf 91       	pop	r28
	#elif defined(USB_CAN_BE_HOST)
		USB_HostTask();
	#elif defined(USB_CAN_BE_DEVICE)
		USB_DeviceTask();
	#endif
}
    3e80:	08 95       	ret

00003e82 <__udivmodsi4>:
    3e82:	a1 e2       	ldi	r26, 0x21	; 33
    3e84:	1a 2e       	mov	r1, r26
    3e86:	aa 1b       	sub	r26, r26
    3e88:	bb 1b       	sub	r27, r27
    3e8a:	fd 01       	movw	r30, r26
    3e8c:	0d c0       	rjmp	.+26     	; 0x3ea8 <__udivmodsi4_ep>

00003e8e <__udivmodsi4_loop>:
    3e8e:	aa 1f       	adc	r26, r26
    3e90:	bb 1f       	adc	r27, r27
    3e92:	ee 1f       	adc	r30, r30
    3e94:	ff 1f       	adc	r31, r31
    3e96:	a2 17       	cp	r26, r18
    3e98:	b3 07       	cpc	r27, r19
    3e9a:	e4 07       	cpc	r30, r20
    3e9c:	f5 07       	cpc	r31, r21
    3e9e:	20 f0       	brcs	.+8      	; 0x3ea8 <__udivmodsi4_ep>
    3ea0:	a2 1b       	sub	r26, r18
    3ea2:	b3 0b       	sbc	r27, r19
    3ea4:	e4 0b       	sbc	r30, r20
    3ea6:	f5 0b       	sbc	r31, r21

00003ea8 <__udivmodsi4_ep>:
    3ea8:	66 1f       	adc	r22, r22
    3eaa:	77 1f       	adc	r23, r23
    3eac:	88 1f       	adc	r24, r24
    3eae:	99 1f       	adc	r25, r25
    3eb0:	1a 94       	dec	r1
    3eb2:	69 f7       	brne	.-38     	; 0x3e8e <__udivmodsi4_loop>
    3eb4:	60 95       	com	r22
    3eb6:	70 95       	com	r23
    3eb8:	80 95       	com	r24
    3eba:	90 95       	com	r25
    3ebc:	9b 01       	movw	r18, r22
    3ebe:	ac 01       	movw	r20, r24
    3ec0:	bd 01       	movw	r22, r26
    3ec2:	cf 01       	movw	r24, r30
    3ec4:	08 95       	ret

00003ec6 <__eerd_byte_usb162>:
    3ec6:	f9 99       	sbic	0x1f, 1	; 31
    3ec8:	fe cf       	rjmp	.-4      	; 0x3ec6 <__eerd_byte_usb162>
    3eca:	92 bd       	out	0x22, r25	; 34
    3ecc:	81 bd       	out	0x21, r24	; 33
    3ece:	f8 9a       	sbi	0x1f, 0	; 31
    3ed0:	99 27       	eor	r25, r25
    3ed2:	80 b5       	in	r24, 0x20	; 32
    3ed4:	08 95       	ret

00003ed6 <__eewr_byte_usb162>:
    3ed6:	26 2f       	mov	r18, r22

00003ed8 <__eewr_r18_usb162>:
    3ed8:	f9 99       	sbic	0x1f, 1	; 31
    3eda:	fe cf       	rjmp	.-4      	; 0x3ed8 <__eewr_r18_usb162>
    3edc:	1f ba       	out	0x1f, r1	; 31
    3ede:	92 bd       	out	0x22, r25	; 34
    3ee0:	81 bd       	out	0x21, r24	; 33
    3ee2:	20 bd       	out	0x20, r18	; 32
    3ee4:	0f b6       	in	r0, 0x3f	; 63
    3ee6:	f8 94       	cli
    3ee8:	fa 9a       	sbi	0x1f, 2	; 31
    3eea:	f9 9a       	sbi	0x1f, 1	; 31
    3eec:	0f be       	out	0x3f, r0	; 63
    3eee:	01 96       	adiw	r24, 0x01	; 1
    3ef0:	08 95       	ret

00003ef2 <_exit>:
    3ef2:	f8 94       	cli

00003ef4 <__stop_program>:
    3ef4:	ff cf       	rjmp	.-2      	; 0x3ef4 <__stop_program>

Disassembly of section .apitable_trampolines:

00003fa0 <BootloaderAPI_Trampolines>:
.section .apitable_trampolines, "ax"
.global BootloaderAPI_Trampolines
BootloaderAPI_Trampolines:

	BootloaderAPI_ErasePage_Trampoline:
		jmp BootloaderAPI_ErasePage
    3fa0:	86 cc       	rjmp	.-1780   	; 0x38ae <BootloaderAPI_ErasePage>

00003fa2 <BootloaderAPI_WritePage_Trampoline>:
    3fa2:	97 cc       	rjmp	.-1746   	; 0x38d2 <BootloaderAPI_WritePage>

00003fa4 <BootloaderAPI_FillWord_Trampoline>:
	BootloaderAPI_WritePage_Trampoline:
		jmp BootloaderAPI_WritePage
    3fa4:	a8 cc       	rjmp	.-1712   	; 0x38f6 <BootloaderAPI_FillWord>

00003fa6 <BootloaderAPI_ReadSignature_Trampoline>:
    3fa6:	b4 cc       	rjmp	.-1688   	; 0x3910 <BootloaderAPI_ReadSignature>

00003fa8 <BootloaderAPI_ReadFuse_Trampoline>:
	BootloaderAPI_FillWord_Trampoline:
		jmp BootloaderAPI_FillWord
    3fa8:	b9 cc       	rjmp	.-1678   	; 0x391c <BootloaderAPI_ReadFuse>

00003faa <BootloaderAPI_ReadLock_Trampoline>:
    3faa:	be cc       	rjmp	.-1668   	; 0x3928 <BootloaderAPI_ReadLock>

00003fac <BootloaderAPI_WriteLock_Trampoline>:
	BootloaderAPI_ReadSignature_Trampoline:
		jmp BootloaderAPI_ReadSignature
    3fac:	c4 cc       	rjmp	.-1656   	; 0x3936 <BootloaderAPI_WriteLock>

00003fae <BootloaderAPI_UNUSED1>:
    3fae:	08 95       	ret

00003fb0 <BootloaderAPI_UNUSED2>:
	BootloaderAPI_ReadFuse_Trampoline:
		jmp BootloaderAPI_ReadFuse
    3fb0:	08 95       	ret

00003fb2 <BootloaderAPI_UNUSED3>:
    3fb2:	08 95       	ret

00003fb4 <BootloaderAPI_UNUSED4>:
	BootloaderAPI_ReadLock_Trampoline:
		jmp BootloaderAPI_ReadLock
    3fb4:	08 95       	ret

00003fb6 <BootloaderAPI_UNUSED5>:
    3fb6:	08 95       	ret

Disassembly of section .apitable_jumptable:

00003fe0 <BootloaderAPI_JumpTable>:
; API function jump table
.section .apitable_jumptable, "ax"
.global BootloaderAPI_JumpTable
BootloaderAPI_JumpTable:

	rjmp BootloaderAPI_ErasePage_Trampoline
    3fe0:	df cf       	rjmp	.-66     	; 0x3fa0 <BootloaderAPI_Trampolines>
	rjmp BootloaderAPI_WritePage_Trampoline
    3fe2:	df cf       	rjmp	.-66     	; 0x3fa2 <BootloaderAPI_WritePage_Trampoline>
	rjmp BootloaderAPI_FillWord_Trampoline
    3fe4:	df cf       	rjmp	.-66     	; 0x3fa4 <BootloaderAPI_FillWord_Trampoline>
	rjmp BootloaderAPI_ReadSignature_Trampoline
    3fe6:	df cf       	rjmp	.-66     	; 0x3fa6 <BootloaderAPI_ReadSignature_Trampoline>
	rjmp BootloaderAPI_ReadFuse_Trampoline
    3fe8:	df cf       	rjmp	.-66     	; 0x3fa8 <BootloaderAPI_ReadFuse_Trampoline>
	rjmp BootloaderAPI_ReadLock_Trampoline
    3fea:	df cf       	rjmp	.-66     	; 0x3faa <BootloaderAPI_ReadLock_Trampoline>
	rjmp BootloaderAPI_WriteLock_Trampoline
    3fec:	df cf       	rjmp	.-66     	; 0x3fac <BootloaderAPI_WriteLock_Trampoline>
	rjmp BootloaderAPI_UNUSED1 ; UNUSED ENTRY 1
    3fee:	df cf       	rjmp	.-66     	; 0x3fae <BootloaderAPI_UNUSED1>
	rjmp BootloaderAPI_UNUSED2 ; UNUSED ENTRY 2
    3ff0:	df cf       	rjmp	.-66     	; 0x3fb0 <BootloaderAPI_UNUSED2>
	rjmp BootloaderAPI_UNUSED3 ; UNUSED ENTRY 3
    3ff2:	df cf       	rjmp	.-66     	; 0x3fb2 <BootloaderAPI_UNUSED3>
	rjmp BootloaderAPI_UNUSED4 ; UNUSED ENTRY 4
    3ff4:	df cf       	rjmp	.-66     	; 0x3fb4 <BootloaderAPI_UNUSED4>
	rjmp BootloaderAPI_UNUSED5 ; UNUSED ENTRY 5
    3ff6:	df cf       	rjmp	.-66     	; 0x3fb6 <BootloaderAPI_UNUSED5>

Disassembly of section .apitable_signatures:

00003ff8 <BootloaderAPI_Signatures>:
    3ff8:	00 30       	cpi	r16, 0x00	; 0
    3ffa:	00 00       	nop
    3ffc:	00 df       	rcall	.-512    	; 0x3dfe <USB_Device_ProcessControlRequest+0x1d6>
    3ffe:	fb dc       	rcall	.-1546   	; 0x39f6 <Endpoint_Write_Control_Stream_LE+0xa4>
